---
triple:          'arm64-apple-darwin'
binary-path:     a.out
relocations:
  - { offsetInCU: 0x3F, offset: 0x3F, size: 0x8, addend: 0x0, symName: _nullPtr, symObjAddr: 0xCF864, symBinAddr: 0x10001C000, symSize: 0x0 }
  - { offsetInCU: 0xFF26, offset: 0xFF26, size: 0x8, addend: 0x0, symName: __ZNSt3__17advanceB8ue170006INS_21__tree_const_iteratorINS_12__value_typeINS_12basic_stringIcNS_11char_traitsIcEENS_9allocatorIcEEEE14LocationConfigEEPNS_11__tree_nodeISA_PvEElEEllvEEvRT_T0_, symObjAddr: 0x13254, symBinAddr: 0x1000138A8, symSize: 0x38 }
  - { offsetInCU: 0x11C2D, offset: 0x11C2D, size: 0x8, addend: 0x0, symName: __ZNSt3__124__put_character_sequenceB8ue170006IcNS_11char_traitsIcEEEERNS_13basic_ostreamIT_T0_EES7_PKS4_m, symObjAddr: 0x15080, symBinAddr: 0x1000156D4, symSize: 0x1F4 }
  - { offsetInCU: 0x145EB, offset: 0x145EB, size: 0x8, addend: 0x0, symName: __ZNSt3__1lsB8ue170006IcNS_11char_traitsIcEENS_9allocatorIcEEEERNS_13basic_ostreamIT_T0_EES9_RKNS_12basic_stringIS6_S7_T1_EE, symObjAddr: 0x144, symBinAddr: 0x100000798, symSize: 0x4C }
  - { offsetInCU: 0x14643, offset: 0x14643, size: 0x8, addend: 0x0, symName: __ZNSt3__14endlB8ue170006IcNS_11char_traitsIcEEEERNS_13basic_ostreamIT_T0_EES7_, symObjAddr: 0x2E4, symBinAddr: 0x100000938, symSize: 0x58 }
  - { offsetInCU: 0x14AAC, offset: 0x14AAC, size: 0x8, addend: 0x0, symName: __ZNSt3__17getlineB8ue170006IcNS_11char_traitsIcEENS_9allocatorIcEEEERNS_13basic_istreamIT_T0_EES9_RNS_12basic_stringIS6_S7_T1_EE, symObjAddr: 0x9C4, symBinAddr: 0x100001018, symSize: 0x5C }
  - { offsetInCU: 0x14B0F, offset: 0x14B0F, size: 0x8, addend: 0x0, symName: __ZNSt3__130__libcpp_is_constant_evaluatedB8ue170006Ev, symObjAddr: 0x1578, symBinAddr: 0x100001BCC, symSize: 0xC }
  - { offsetInCU: 0x14B2C, offset: 0x14B2C, size: 0x8, addend: 0x0, symName: __ZNSt3__117__libcpp_allocateB8ue170006Emm, symObjAddr: 0x1870, symBinAddr: 0x100001EC4, symSize: 0x28 }
  - { offsetInCU: 0x14B69, offset: 0x14B69, size: 0x8, addend: 0x0, symName: __ZNSt3__121__libcpp_operator_newB8ue170006IJmEEEPvDpT_, symObjAddr: 0x18AC, symBinAddr: 0x100001F00, symSize: 0x24 }
  - { offsetInCU: 0x14BA2, offset: 0x14BA2, size: 0x8, addend: 0x0, symName: __ZNSt3__17getlineB8ue170006IcNS_11char_traitsIcEENS_9allocatorIcEEEERNS_13basic_istreamIT_T0_EES9_RNS_12basic_stringIS6_S7_T1_EES6_, symObjAddr: 0x1908, symBinAddr: 0x100001F5C, symSize: 0x238 }
  - { offsetInCU: 0x14C93, offset: 0x14C93, size: 0x8, addend: 0x0, symName: __ZNSt3__19use_facetB8ue170006INS_5ctypeIcEEEERKT_RKNS_6localeE, symObjAddr: 0x2210, symBinAddr: 0x100002864, symSize: 0x2C }
  - { offsetInCU: 0x15160, offset: 0x15160, size: 0x8, addend: 0x0, symName: __ZNSt3__110__str_findB8ue170006IcmNS_11char_traitsIcEELm18446744073709551615EEET0_PKT_S3_S6_S3_S3_, symObjAddr: 0x2274, symBinAddr: 0x1000028C8, symSize: 0xE4 }
  - { offsetInCU: 0x15207, offset: 0x15207, size: 0x8, addend: 0x0, symName: __ZNSt3__118__search_substringB8ue170006IcNS_11char_traitsIcEEEEPKT_S5_S5_S5_S5_, symObjAddr: 0x23C8, symBinAddr: 0x100002A1C, symSize: 0x154 }
  - { offsetInCU: 0x152A1, offset: 0x152A1, size: 0x8, addend: 0x0, symName: __ZNSt3__118__constexpr_memchrB8ue170006IKccEEPT_S3_T0_m, symObjAddr: 0x2604, symBinAddr: 0x100002C58, symSize: 0xC0 }
  - { offsetInCU: 0x15317, offset: 0x15317, size: 0x8, addend: 0x0, symName: __ZNSt3__112__to_addressB8ue170006IKcEEPT_S3_, symObjAddr: 0x26C4, symBinAddr: 0x100002D18, symSize: 0x14 }
  - { offsetInCU: 0x1537F, offset: 0x1537F, size: 0x8, addend: 0x0, symName: __ZNSt3__118__constexpr_strlenB8ue170006EPKc, symObjAddr: 0x2790, symBinAddr: 0x100002DE4, symSize: 0x24 }
  - { offsetInCU: 0x153AB, offset: 0x153AB, size: 0x8, addend: 0x0, symName: __ZNSt3__1eqB8ue170006IcNS_11char_traitsIcEENS_9allocatorIcEEEEbRKNS_12basic_stringIT_T0_T1_EEPKS6_, symObjAddr: 0x27E0, symBinAddr: 0x100002E34, symSize: 0xC0 }
  - { offsetInCU: 0x15412, offset: 0x15412, size: 0x8, addend: 0x0, symName: __ZNSt3__19make_pairB8ue170006IRNS_12basic_stringIcNS_11char_traitsIcEENS_9allocatorIcEEEER14LocationConfigEENS_4pairINS_18__unwrap_ref_decayIT_E4typeENSB_IT0_E4typeEEEOSC_OSF_, symObjAddr: 0x2FE8, symBinAddr: 0x10000363C, symSize: 0x40 }
  - { offsetInCU: 0x1551A, offset: 0x1551A, size: 0x8, addend: 0x0, symName: __ZNSt3__119__libcpp_deallocateB8ue170006EPvmm, symObjAddr: 0x3B3C, symBinAddr: 0x100004190, symSize: 0x30 }
  - { offsetInCU: 0x15562, offset: 0x15562, size: 0x8, addend: 0x0, symName: __ZNSt3__127__do_deallocate_handle_sizeB8ue170006IJEEEvPvmDpT_, symObjAddr: 0x3B6C, symBinAddr: 0x1000041C0, symSize: 0x28 }
  - { offsetInCU: 0x155A0, offset: 0x155A0, size: 0x8, addend: 0x0, symName: __ZNSt3__124__libcpp_operator_deleteB8ue170006IJPvEEEvDpT_, symObjAddr: 0x3B94, symBinAddr: 0x1000041E8, symSize: 0x24 }
  - { offsetInCU: 0x1563B, offset: 0x1563B, size: 0x8, addend: 0x0, symName: __ZNSt3__1neB8ue170006ERKNS_19__hash_map_iteratorINS_15__hash_iteratorIPNS_11__hash_nodeINS_17__hash_value_typeIiNS_12basic_stringIcNS_11char_traitsIcEENS_9allocatorIcEEEEEEPvEEEEEESH_, symObjAddr: 0x43A8, symBinAddr: 0x1000049FC, symSize: 0x30 }
  - { offsetInCU: 0x15678, offset: 0x15678, size: 0x8, addend: 0x0, symName: __ZNSt3__116__constrain_hashB8ue170006Emm, symObjAddr: 0x4974, symBinAddr: 0x100004FC8, symSize: 0x98 }
  - { offsetInCU: 0x156B2, offset: 0x156B2, size: 0x8, addend: 0x0, symName: __ZNSt3__1neB8ue170006ERKNS_15__hash_iteratorIPNS_11__hash_nodeINS_17__hash_value_typeIiNS_12basic_stringIcNS_11char_traitsIcEENS_9allocatorIcEEEEEEPvEEEESF_, symObjAddr: 0x4D30, symBinAddr: 0x100005384, symSize: 0x34 }
  - { offsetInCU: 0x156EF, offset: 0x156EF, size: 0x8, addend: 0x0, symName: __ZNSt3__1eqB8ue170006ERKNS_15__hash_iteratorIPNS_11__hash_nodeINS_17__hash_value_typeIiNS_12basic_stringIcNS_11char_traitsIcEENS_9allocatorIcEEEEEEPvEEEESF_, symObjAddr: 0x4D64, symBinAddr: 0x1000053B8, symSize: 0x30 }
  - { offsetInCU: 0x157B0, offset: 0x157B0, size: 0x8, addend: 0x0, symName: __ZNSt3__13maxB8ue170006ImEERKT_S3_S3_, symObjAddr: 0x5764, symBinAddr: 0x100005DB8, symSize: 0x2C }
  - { offsetInCU: 0x157F3, offset: 0x157F3, size: 0x8, addend: 0x0, symName: __ZNSt3__116__is_hash_power2B8ue170006Em, symObjAddr: 0x5790, symBinAddr: 0x100005DE4, symSize: 0x50 }
  - { offsetInCU: 0x1581F, offset: 0x1581F, size: 0x8, addend: 0x0, symName: __ZNSt3__116__next_hash_pow2B8ue170006Em, symObjAddr: 0x5C84, symBinAddr: 0x1000062D8, symSize: 0x6C }
  - { offsetInCU: 0x15867, offset: 0x15867, size: 0x8, addend: 0x0, symName: __ZNSt3__112__libcpp_clzB8ue170006Em, symObjAddr: 0x5E74, symBinAddr: 0x1000064C8, symSize: 0x1C }
  - { offsetInCU: 0x15893, offset: 0x15893, size: 0x8, addend: 0x0, symName: __ZNSt3__13maxB8ue170006ImNS_6__lessIvvEEEERKT_S5_S5_T0_, symObjAddr: 0x5E90, symBinAddr: 0x1000064E4, symSize: 0x54 }
  - { offsetInCU: 0x15932, offset: 0x15932, size: 0x8, addend: 0x0, symName: __ZNSt3__19make_pairB8ue170006IRNS_12basic_stringIcNS_11char_traitsIcEENS_9allocatorIcEEEES7_EENS_4pairINS_18__unwrap_ref_decayIT_E4typeENS9_IT0_E4typeEEEOSA_OSD_, symObjAddr: 0x62C8, symBinAddr: 0x10000691C, symSize: 0x40 }
  - { offsetInCU: 0x15A39, offset: 0x15A39, size: 0x8, addend: 0x0, symName: __ZNSt3__112__to_addressB8ue170006IiEEPT_S2_, symObjAddr: 0x76E8, symBinAddr: 0x100007D3C, symSize: 0x14 }
  - { offsetInCU: 0x15AA1, offset: 0x15AA1, size: 0x8, addend: 0x0, symName: __ZNSt3__112__to_addressB8ue170006INS_12basic_stringIcNS_11char_traitsIcEENS_9allocatorIcEEEEEEPT_S8_, symObjAddr: 0x7F3C, symBinAddr: 0x100008590, symSize: 0x14 }
  - { offsetInCU: 0x15AD6, offset: 0x15AD6, size: 0x8, addend: 0x0, symName: __ZNSt3__13minB8ue170006ImEERKT_S3_S3_, symObjAddr: 0x8798, symBinAddr: 0x100008DEC, symSize: 0x2C }
  - { offsetInCU: 0x15D1A, offset: 0x15D1A, size: 0x8, addend: 0x0, symName: __ZNSt3__13minB8ue170006ImNS_6__lessIvvEEEERKT_S5_S5_T0_, symObjAddr: 0x8824, symBinAddr: 0x100008E78, symSize: 0x54 }
  - { offsetInCU: 0x15D74, offset: 0x15D74, size: 0x8, addend: 0x0, symName: __ZNSt3__120__throw_length_errorB8ue170006EPKc, symObjAddr: 0x88D0, symBinAddr: 0x100008F24, symSize: 0x64 }
  - { offsetInCU: 0x15D9E, offset: 0x15D9E, size: 0x8, addend: 0x0, symName: __ZNSt3__119__allocate_at_leastB8ue170006INS_9allocatorINS_12basic_stringIcNS_11char_traitsIcEENS1_IcEEEEEEEENS_19__allocation_resultINS_16allocator_traitsIT_E7pointerEEERSA_m, symObjAddr: 0x8AD0, symBinAddr: 0x100009124, symSize: 0x40 }
  - { offsetInCU: 0x15DE1, offset: 0x15DE1, size: 0x8, addend: 0x0, symName: __ZNSt3__142__uninitialized_allocator_move_if_noexceptB8ue170006INS_9allocatorINS_12basic_stringIcNS_11char_traitsIcEENS1_IcEEEEEENS_16reverse_iteratorIPS6_EESA_SA_EET2_RT_T0_T1_SB_, symObjAddr: 0x8CB8, symBinAddr: 0x10000930C, symSize: 0x134 }
  - { offsetInCU: 0x15E81, offset: 0x15E81, size: 0x8, addend: 0x0, symName: __ZNSt3__14swapB8ue170006IPNS_12basic_stringIcNS_11char_traitsIcEENS_9allocatorIcEEEEEEvRT_S9_, symObjAddr: 0x8E38, symBinAddr: 0x10000948C, symSize: 0x3C }
  - { offsetInCU: 0x15ED2, offset: 0x15ED2, size: 0x8, addend: 0x0, symName: __ZNSt3__122__make_exception_guardB8ue170006INS_29_AllocatorDestroyRangeReverseINS_9allocatorINS_12basic_stringIcNS_11char_traitsIcEENS2_IcEEEEEENS_16reverse_iteratorIPS7_EEEEEENS_28__exception_guard_exceptionsIT_EESE_, symObjAddr: 0x8F3C, symBinAddr: 0x100009590, symSize: 0x4C }
  - { offsetInCU: 0x15F08, offset: 0x15F08, size: 0x8, addend: 0x0, symName: __ZNSt3__1neB8ue170006IPNS_12basic_stringIcNS_11char_traitsIcEENS_9allocatorIcEEEES7_EEbRKNS_16reverse_iteratorIT_EERKNS8_IT0_EE, symObjAddr: 0x8FCC, symBinAddr: 0x100009620, symSize: 0x48 }
  - { offsetInCU: 0x15F54, offset: 0x15F54, size: 0x8, addend: 0x0, symName: __ZNSt3__112__to_addressB8ue170006INS_16reverse_iteratorIPNS_12basic_stringIcNS_11char_traitsIcEENS_9allocatorIcEEEEEEvEEu7__decayIDTclsr19__to_address_helperIT_EE6__callclsr3stdE7declvalIRKSA_EEEEESC_, symObjAddr: 0x9014, symBinAddr: 0x100009668, symSize: 0x24 }
  - { offsetInCU: 0x15FB3, offset: 0x15FB3, size: 0x8, addend: 0x0, symName: __ZNSt3__119__allocator_destroyB8ue170006INS_9allocatorINS_12basic_stringIcNS_11char_traitsIcEENS1_IcEEEEEENS_16reverse_iteratorINS8_IPS6_EEEESB_EEvRT_T0_T1_, symObjAddr: 0x92D0, symBinAddr: 0x100009924, symSize: 0x70 }
  - { offsetInCU: 0x16018, offset: 0x16018, size: 0x8, addend: 0x0, symName: __ZNSt3__1neB8ue170006INS_16reverse_iteratorIPNS_12basic_stringIcNS_11char_traitsIcEENS_9allocatorIcEEEEEES9_EEbRKNS1_IT_EERKNS1_IT0_EE, symObjAddr: 0x937C, symBinAddr: 0x1000099D0, symSize: 0x60 }
  - { offsetInCU: 0x16064, offset: 0x16064, size: 0x8, addend: 0x0, symName: __ZNSt3__112__to_addressB8ue170006INS_16reverse_iteratorINS1_IPNS_12basic_stringIcNS_11char_traitsIcEENS_9allocatorIcEEEEEEEEvEEu7__decayIDTclsr19__to_address_helperIT_EE6__callclsr3stdE7declvalIRKSB_EEEEESD_, symObjAddr: 0x93DC, symBinAddr: 0x100009A30, symSize: 0x24 }
  - { offsetInCU: 0x160C3, offset: 0x160C3, size: 0x8, addend: 0x0, symName: __ZNSt3__116__do_string_hashB8ue170006IPKcEEmT_S3_, symObjAddr: 0xA1BC, symBinAddr: 0x10000A810, symSize: 0x3C }
  - { offsetInCU: 0x16109, offset: 0x16109, size: 0x8, addend: 0x0, symName: __ZNSt3__110__loadwordB8ue170006ImEET_PKv, symObjAddr: 0xABB0, symBinAddr: 0x10000B204, symSize: 0x20 }
  - { offsetInCU: 0x1614C, offset: 0x1614C, size: 0x8, addend: 0x0, symName: __ZNSt3__14swapB8ue170006ImEEvRT_S2_, symObjAddr: 0xAD6C, symBinAddr: 0x10000B3C0, symSize: 0x3C }
  - { offsetInCU: 0x1619D, offset: 0x1619D, size: 0x8, addend: 0x0, symName: __ZNSt3__110__loadwordB8ue170006IjEET_PKv, symObjAddr: 0xADFC, symBinAddr: 0x10000B450, symSize: 0x20 }
  - { offsetInCU: 0x161E0, offset: 0x161E0, size: 0x8, addend: 0x0, symName: __ZNSt3__1eqB8ue170006INS_9allocatorIcEEEEbRKNS_12basic_stringIcNS_11char_traitsIcEET_EES9_, symObjAddr: 0xB0C8, symBinAddr: 0x10000B71C, symSize: 0x148 }
  - { offsetInCU: 0x16295, offset: 0x16295, size: 0x8, addend: 0x0, symName: __ZNSt3__1ltB8ue170006IcNS_11char_traitsIcEENS_9allocatorIcEEEEbRKNS_12basic_stringIT_T0_T1_EESB_, symObjAddr: 0xC8EC, symBinAddr: 0x10000CF40, symSize: 0x38 }
  - { offsetInCU: 0x1630B, offset: 0x1630B, size: 0x8, addend: 0x0, symName: __ZNSt3__122__make_exception_guardB8ue170006INS_6vectorINS_12basic_stringIcNS_11char_traitsIcEENS_9allocatorIcEEEENS5_IS7_EEE16__destroy_vectorEEENS_28__exception_guard_exceptionsIT_EESC_, symObjAddr: 0xD704, symBinAddr: 0x10000DD58, symSize: 0x40 }
  - { offsetInCU: 0x16340, offset: 0x16340, size: 0x8, addend: 0x0, symName: __ZNSt3__130__uninitialized_allocator_copyB8ue170006INS_9allocatorINS_12basic_stringIcNS_11char_traitsIcEENS1_IcEEEEEEPS6_S8_S8_EET2_RT_T0_T1_S9_, symObjAddr: 0xD92C, symBinAddr: 0x10000DF80, symSize: 0x80 }
  - { offsetInCU: 0x163DD, offset: 0x163DD, size: 0x8, addend: 0x0, symName: __ZNSt3__114__unwrap_rangeB8ue170006IPNS_12basic_stringIcNS_11char_traitsIcEENS_9allocatorIcEEEES7_EENS_4pairIT0_S9_EET_SB_, symObjAddr: 0xD9AC, symBinAddr: 0x10000E000, symSize: 0x60 }
  - { offsetInCU: 0x16429, offset: 0x16429, size: 0x8, addend: 0x0, symName: __ZNSt3__135__uninitialized_allocator_copy_implB8ue170006INS_9allocatorINS_12basic_stringIcNS_11char_traitsIcEENS1_IcEEEEEEPS6_S8_S8_EET2_RT_T0_T1_S9_, symObjAddr: 0xDA0C, symBinAddr: 0x10000E060, symSize: 0xFC }
  - { offsetInCU: 0x164C7, offset: 0x164C7, size: 0x8, addend: 0x0, symName: __ZNSt3__113__unwrap_iterB8ue170006IPNS_12basic_stringIcNS_11char_traitsIcEENS_9allocatorIcEEEENS_18__unwrap_iter_implIS7_Lb1EEELi0EEEDTclsrT0_8__unwrapclsr3stdE7declvalIT_EEEESB_, symObjAddr: 0xDB08, symBinAddr: 0x10000E15C, symSize: 0x24 }
  - { offsetInCU: 0x1650B, offset: 0x1650B, size: 0x8, addend: 0x0, symName: __ZNSt3__113__rewrap_iterB8ue170006IPNS_12basic_stringIcNS_11char_traitsIcEENS_9allocatorIcEEEES7_NS_18__unwrap_iter_implIS7_Lb1EEEEET_SA_T0_, symObjAddr: 0xDB2C, symBinAddr: 0x10000E180, symSize: 0x50 }
  - { offsetInCU: 0x16560, offset: 0x16560, size: 0x8, addend: 0x0, symName: __ZNSt3__19make_pairB8ue170006IPNS_12basic_stringIcNS_11char_traitsIcEENS_9allocatorIcEEEES7_EENS_4pairINS_18__unwrap_ref_decayIT_E4typeENS9_IT0_E4typeEEEOSA_OSD_, symObjAddr: 0xDB7C, symBinAddr: 0x10000E1D0, symSize: 0x38 }
  - { offsetInCU: 0x1665C, offset: 0x1665C, size: 0x8, addend: 0x0, symName: __ZNSt3__122__make_exception_guardB8ue170006INS_29_AllocatorDestroyRangeReverseINS_9allocatorINS_12basic_stringIcNS_11char_traitsIcEENS2_IcEEEEEEPS7_EEEENS_28__exception_guard_exceptionsIT_EESC_, symObjAddr: 0xDC24, symBinAddr: 0x10000E278, symSize: 0x4C }
  - { offsetInCU: 0x16692, offset: 0x16692, size: 0x8, addend: 0x0, symName: __ZNSt3__119__allocator_destroyB8ue170006INS_9allocatorINS_12basic_stringIcNS_11char_traitsIcEENS1_IcEEEEEENS_16reverse_iteratorIPS6_EESA_EEvRT_T0_T1_, symObjAddr: 0xDEAC, symBinAddr: 0x10000E500, symSize: 0x70 }
  - { offsetInCU: 0x16766, offset: 0x16766, size: 0x8, addend: 0x0, symName: __ZNSt3__1neB8ue170006ERKNS_25__hash_map_const_iteratorINS_21__hash_const_iteratorIPNS_11__hash_nodeINS_17__hash_value_typeINS_12basic_stringIcNS_11char_traitsIcEENS_9allocatorIcEEEES9_EEPvEEEEEESH_, symObjAddr: 0xE864, symBinAddr: 0x10000EEB8, symSize: 0x30 }
  - { offsetInCU: 0x167A3, offset: 0x167A3, size: 0x8, addend: 0x0, symName: __ZNSt3__1neB8ue170006ERKNS_21__hash_const_iteratorIPNS_11__hash_nodeINS_17__hash_value_typeINS_12basic_stringIcNS_11char_traitsIcEENS_9allocatorIcEEEES8_EEPvEEEESF_, symObjAddr: 0xE8E8, symBinAddr: 0x10000EF3C, symSize: 0x34 }
  - { offsetInCU: 0x167E0, offset: 0x167E0, size: 0x8, addend: 0x0, symName: __ZNSt3__1eqB8ue170006ERKNS_21__hash_const_iteratorIPNS_11__hash_nodeINS_17__hash_value_typeINS_12basic_stringIcNS_11char_traitsIcEENS_9allocatorIcEEEES8_EEPvEEEESF_, symObjAddr: 0xE91C, symBinAddr: 0x10000EF70, symSize: 0x30 }
  - { offsetInCU: 0x16850, offset: 0x16850, size: 0x8, addend: 0x0, symName: __ZNSt3__122__make_exception_guardB8ue170006INS_6vectorIiNS_9allocatorIiEEE16__destroy_vectorEEENS_28__exception_guard_exceptionsIT_EES7_, symObjAddr: 0xED50, symBinAddr: 0x10000F3A4, symSize: 0x40 }
  - { offsetInCU: 0x16885, offset: 0x16885, size: 0x8, addend: 0x0, symName: __ZNSt3__119__allocate_at_leastB8ue170006INS_9allocatorIiEEEENS_19__allocation_resultINS_16allocator_traitsIT_E7pointerEEERS5_m, symObjAddr: 0xF000, symBinAddr: 0x10000F654, symSize: 0x40 }
  - { offsetInCU: 0x168C8, offset: 0x168C8, size: 0x8, addend: 0x0, symName: __ZNSt3__130__uninitialized_allocator_copyB8ue170006INS_9allocatorIiEEPiS3_S3_EET2_RT_T0_T1_S4_, symObjAddr: 0xF244, symBinAddr: 0x10000F898, symSize: 0x80 }
  - { offsetInCU: 0x16965, offset: 0x16965, size: 0x8, addend: 0x0, symName: __ZNSt3__114__unwrap_rangeB8ue170006IPiS1_EENS_4pairIT0_S3_EET_S5_, symObjAddr: 0xF334, symBinAddr: 0x10000F988, symSize: 0x60 }
  - { offsetInCU: 0x169B1, offset: 0x169B1, size: 0x8, addend: 0x0, symName: __ZNSt3__135__uninitialized_allocator_copy_implB8ue170006INS_9allocatorIiEEPiS3_S3_EET2_RT_T0_T1_S4_, symObjAddr: 0xF394, symBinAddr: 0x10000F9E8, symSize: 0xFC }
  - { offsetInCU: 0x16A4F, offset: 0x16A4F, size: 0x8, addend: 0x0, symName: __ZNSt3__113__unwrap_iterB8ue170006IPiNS_18__unwrap_iter_implIS1_Lb1EEELi0EEEDTclsrT0_8__unwrapclsr3stdE7declvalIT_EEEES5_, symObjAddr: 0xF490, symBinAddr: 0x10000FAE4, symSize: 0x24 }
  - { offsetInCU: 0x16A93, offset: 0x16A93, size: 0x8, addend: 0x0, symName: __ZNSt3__113__rewrap_iterB8ue170006IPiS1_NS_18__unwrap_iter_implIS1_Lb1EEEEET_S4_T0_, symObjAddr: 0xF4B4, symBinAddr: 0x10000FB08, symSize: 0x50 }
  - { offsetInCU: 0x16AE8, offset: 0x16AE8, size: 0x8, addend: 0x0, symName: __ZNSt3__19make_pairB8ue170006IPiS1_EENS_4pairINS_18__unwrap_ref_decayIT_E4typeENS3_IT0_E4typeEEEOS4_OS7_, symObjAddr: 0xF504, symBinAddr: 0x10000FB58, symSize: 0x38 }
  - { offsetInCU: 0x16BE4, offset: 0x16BE4, size: 0x8, addend: 0x0, symName: __ZNSt3__122__make_exception_guardB8ue170006INS_29_AllocatorDestroyRangeReverseINS_9allocatorIiEEPiEEEENS_28__exception_guard_exceptionsIT_EES7_, symObjAddr: 0xF5AC, symBinAddr: 0x10000FC00, symSize: 0x4C }
  - { offsetInCU: 0x16C1A, offset: 0x16C1A, size: 0x8, addend: 0x0, symName: __ZNSt3__119__allocator_destroyB8ue170006INS_9allocatorIiEENS_16reverse_iteratorIPiEES5_EEvRT_T0_T1_, symObjAddr: 0xF82C, symBinAddr: 0x10000FE80, symSize: 0x70 }
  - { offsetInCU: 0x16C7D, offset: 0x16C7D, size: 0x8, addend: 0x0, symName: __ZNSt3__1neB8ue170006IPiS1_EEbRKNS_16reverse_iteratorIT_EERKNS2_IT0_EE, symObjAddr: 0xF8D0, symBinAddr: 0x10000FF24, symSize: 0x48 }
  - { offsetInCU: 0x16CC9, offset: 0x16CC9, size: 0x8, addend: 0x0, symName: __ZNSt3__112__to_addressB8ue170006INS_16reverse_iteratorIPiEEvEEu7__decayIDTclsr19__to_address_helperIT_EE6__callclsr3stdE7declvalIRKS4_EEEEES6_, symObjAddr: 0xF918, symBinAddr: 0x10000FF6C, symSize: 0x24 }
  - { offsetInCU: 0x16D7B, offset: 0x16D7B, size: 0x8, addend: 0x0, symName: __ZNSt3__127__tree_balance_after_insertB8ue170006IPNS_16__tree_node_baseIPvEEEEvT_S5_, symObjAddr: 0xFB98, symBinAddr: 0x1000101EC, symSize: 0x340 }
  - { offsetInCU: 0x16DEF, offset: 0x16DEF, size: 0x8, addend: 0x0, symName: __ZNSt3__120__tree_is_left_childB8ue170006IPNS_16__tree_node_baseIPvEEEEbT_, symObjAddr: 0xFF18, symBinAddr: 0x10001056C, symSize: 0x2C }
  - { offsetInCU: 0x16E24, offset: 0x16E24, size: 0x8, addend: 0x0, symName: __ZNSt3__118__tree_left_rotateB8ue170006IPNS_16__tree_node_baseIPvEEEEvT_, symObjAddr: 0xFF44, symBinAddr: 0x100010598, symSize: 0xEC }
  - { offsetInCU: 0x16E66, offset: 0x16E66, size: 0x8, addend: 0x0, symName: __ZNSt3__119__tree_right_rotateB8ue170006IPNS_16__tree_node_baseIPvEEEEvT_, symObjAddr: 0x10030, symBinAddr: 0x100010684, symSize: 0xCC }
  - { offsetInCU: 0x16EA8, offset: 0x16EA8, size: 0x8, addend: 0x0, symName: __ZNSt3__112__to_addressB8ue170006I12ServerConfigEEPT_S3_, symObjAddr: 0x10CAC, symBinAddr: 0x100011300, symSize: 0x14 }
  - { offsetInCU: 0x16EFB, offset: 0x16EFB, size: 0x8, addend: 0x0, symName: __ZNSt3__1neB8ue170006ERKNS_25__hash_map_const_iteratorINS_21__hash_const_iteratorIPNS_11__hash_nodeINS_17__hash_value_typeIiNS_12basic_stringIcNS_11char_traitsIcEENS_9allocatorIcEEEEEEPvEEEEEESH_, symObjAddr: 0x1176C, symBinAddr: 0x100011DC0, symSize: 0x30 }
  - { offsetInCU: 0x16F38, offset: 0x16F38, size: 0x8, addend: 0x0, symName: __ZNSt3__1neB8ue170006ERKNS_21__hash_const_iteratorIPNS_11__hash_nodeINS_17__hash_value_typeIiNS_12basic_stringIcNS_11char_traitsIcEENS_9allocatorIcEEEEEEPvEEEESF_, symObjAddr: 0x11840, symBinAddr: 0x100011E94, symSize: 0x34 }
  - { offsetInCU: 0x16F75, offset: 0x16F75, size: 0x8, addend: 0x0, symName: __ZNSt3__1eqB8ue170006ERKNS_21__hash_const_iteratorIPNS_11__hash_nodeINS_17__hash_value_typeIiNS_12basic_stringIcNS_11char_traitsIcEENS_9allocatorIcEEEEEEPvEEEESF_, symObjAddr: 0x11874, symBinAddr: 0x100011EC8, symSize: 0x30 }
  - { offsetInCU: 0x17003, offset: 0x17003, size: 0x8, addend: 0x0, symName: __ZNSt3__1neB8ue170006ERKNS_20__map_const_iteratorINS_21__tree_const_iteratorINS_12__value_typeINS_12basic_stringIcNS_11char_traitsIcEENS_9allocatorIcEEEE14LocationConfigEEPNS_11__tree_nodeISA_PvEElEEEESI_, symObjAddr: 0x129F0, symBinAddr: 0x100013044, symSize: 0x30 }
  - { offsetInCU: 0x17040, offset: 0x17040, size: 0x8, addend: 0x0, symName: __ZNSt3__1neB8ue170006ERKNS_21__tree_const_iteratorINS_12__value_typeINS_12basic_stringIcNS_11char_traitsIcEENS_9allocatorIcEEEE14LocationConfigEEPNS_11__tree_nodeIS9_PvEElEESG_, symObjAddr: 0x12AF8, symBinAddr: 0x10001314C, symSize: 0x34 }
  - { offsetInCU: 0x1707D, offset: 0x1707D, size: 0x8, addend: 0x0, symName: __ZNSt3__1eqB8ue170006ERKNS_21__tree_const_iteratorINS_12__value_typeINS_12basic_stringIcNS_11char_traitsIcEENS_9allocatorIcEEEE14LocationConfigEEPNS_11__tree_nodeIS9_PvEElEESG_, symObjAddr: 0x12B2C, symBinAddr: 0x100013180, symSize: 0x30 }
  - { offsetInCU: 0x170BA, offset: 0x170BA, size: 0x8, addend: 0x0, symName: __ZNSt3__14nextB8ue170006INS_21__tree_const_iteratorINS_12__value_typeINS_12basic_stringIcNS_11char_traitsIcEENS_9allocatorIcEEEE14LocationConfigEEPNS_11__tree_nodeISA_PvEElEEEENS_9enable_ifIXsr29__has_input_iterator_categoryIT_EE5valueESH_E4typeESH_NS_15iterator_traitsISH_E15difference_typeE, symObjAddr: 0x130C4, symBinAddr: 0x100013718, symSize: 0x3C }
  - { offsetInCU: 0x170FD, offset: 0x170FD, size: 0x8, addend: 0x0, symName: __ZNSt3__116__tree_prev_iterB8ue170006IPNS_16__tree_node_baseIPvEEPNS_15__tree_end_nodeIS4_EEEET_T0_, symObjAddr: 0x1318C, symBinAddr: 0x1000137E0, symSize: 0x88 }
  - { offsetInCU: 0x17149, offset: 0x17149, size: 0x8, addend: 0x0, symName: __ZNSt3__110__tree_maxB8ue170006IPNS_16__tree_node_baseIPvEEEET_S5_, symObjAddr: 0x13214, symBinAddr: 0x100013868, symSize: 0x40 }
  - { offsetInCU: 0x1717E, offset: 0x1717E, size: 0x8, addend: 0x0, symName: __ZNSt3__121__convert_to_integralB8ue170006El, symObjAddr: 0x1328C, symBinAddr: 0x1000138E0, symSize: 0x14 }
  - { offsetInCU: 0x171AA, offset: 0x171AA, size: 0x8, addend: 0x0, symName: __ZNSt3__19__advanceB8ue170006INS_21__tree_const_iteratorINS_12__value_typeINS_12basic_stringIcNS_11char_traitsIcEENS_9allocatorIcEEEE14LocationConfigEEPNS_11__tree_nodeISA_PvEElEEEEvRT_NS_15iterator_traitsISG_E15difference_typeENS_26bidirectional_iterator_tagE, symObjAddr: 0x132A0, symBinAddr: 0x1000138F4, symSize: 0xA4 }
  - { offsetInCU: 0x171F3, offset: 0x171F3, size: 0x8, addend: 0x0, symName: __ZNSt3__116__tree_next_iterB8ue170006IPNS_15__tree_end_nodeIPNS_16__tree_node_baseIPvEEEES5_EET_T0_, symObjAddr: 0x1337C, symBinAddr: 0x1000139D0, symSize: 0x80 }
  - { offsetInCU: 0x17231, offset: 0x17231, size: 0x8, addend: 0x0, symName: __ZNSt3__110__tree_minB8ue170006IPNS_16__tree_node_baseIPvEEEET_S5_, symObjAddr: 0x133FC, symBinAddr: 0x100013A50, symSize: 0x40 }
  - { offsetInCU: 0x17299, offset: 0x17299, size: 0x8, addend: 0x0, symName: __ZNSt3__119__allocate_at_leastB8ue170006INS_9allocatorI12ServerConfigEEEENS_19__allocation_resultINS_16allocator_traitsIT_E7pointerEEERS6_m, symObjAddr: 0x13C00, symBinAddr: 0x100014254, symSize: 0x40 }
  - { offsetInCU: 0x172DC, offset: 0x172DC, size: 0x8, addend: 0x0, symName: __ZNSt3__142__uninitialized_allocator_move_if_noexceptB8ue170006INS_9allocatorI12ServerConfigEENS_16reverse_iteratorIPS2_EES6_S6_EET2_RT_T0_T1_S7_, symObjAddr: 0x13EBC, symBinAddr: 0x100014510, symSize: 0x134 }
  - { offsetInCU: 0x1737C, offset: 0x1737C, size: 0x8, addend: 0x0, symName: __ZNSt3__14swapB8ue170006IP12ServerConfigEEvRT_S4_, symObjAddr: 0x1403C, symBinAddr: 0x100014690, symSize: 0x3C }
  - { offsetInCU: 0x173CD, offset: 0x173CD, size: 0x8, addend: 0x0, symName: __ZNSt3__122__make_exception_guardB8ue170006INS_29_AllocatorDestroyRangeReverseINS_9allocatorI12ServerConfigEENS_16reverse_iteratorIPS3_EEEEEENS_28__exception_guard_exceptionsIT_EESA_, symObjAddr: 0x14188, symBinAddr: 0x1000147DC, symSize: 0x4C }
  - { offsetInCU: 0x17403, offset: 0x17403, size: 0x8, addend: 0x0, symName: __ZNSt3__1neB8ue170006IP12ServerConfigS2_EEbRKNS_16reverse_iteratorIT_EERKNS3_IT0_EE, symObjAddr: 0x14218, symBinAddr: 0x10001486C, symSize: 0x48 }
  - { offsetInCU: 0x1744F, offset: 0x1744F, size: 0x8, addend: 0x0, symName: __ZNSt3__112__to_addressB8ue170006INS_16reverse_iteratorIP12ServerConfigEEvEEu7__decayIDTclsr19__to_address_helperIT_EE6__callclsr3stdE7declvalIRKS5_EEEEES7_, symObjAddr: 0x14260, symBinAddr: 0x1000148B4, symSize: 0x24 }
  - { offsetInCU: 0x174AE, offset: 0x174AE, size: 0x8, addend: 0x0, symName: __ZNSt3__119__allocator_destroyB8ue170006INS_9allocatorI12ServerConfigEENS_16reverse_iteratorINS4_IPS2_EEEES7_EEvRT_T0_T1_, symObjAddr: 0x1451C, symBinAddr: 0x100014B70, symSize: 0x70 }
  - { offsetInCU: 0x17513, offset: 0x17513, size: 0x8, addend: 0x0, symName: __ZNSt3__1neB8ue170006INS_16reverse_iteratorIP12ServerConfigEES4_EEbRKNS1_IT_EERKNS1_IT0_EE, symObjAddr: 0x145C8, symBinAddr: 0x100014C1C, symSize: 0x60 }
  - { offsetInCU: 0x1755F, offset: 0x1755F, size: 0x8, addend: 0x0, symName: __ZNSt3__112__to_addressB8ue170006INS_16reverse_iteratorINS1_IP12ServerConfigEEEEvEEu7__decayIDTclsr19__to_address_helperIT_EE6__callclsr3stdE7declvalIRKS6_EEEEES8_, symObjAddr: 0x14654, symBinAddr: 0x100014CA8, symSize: 0x24 }
  - { offsetInCU: 0x175BE, offset: 0x175BE, size: 0x8, addend: 0x0, symName: __ZNSt3__1lsB8ue170006INS_11char_traitsIcEEEERNS_13basic_ostreamIcT_EES6_PKc, symObjAddr: 0x1500C, symBinAddr: 0x100015660, symSize: 0x48 }
  - { offsetInCU: 0x17604, offset: 0x17604, size: 0x8, addend: 0x0, symName: __ZNSt3__116__pad_and_outputB8ue170006IcNS_11char_traitsIcEEEENS_19ostreambuf_iteratorIT_T0_EES6_PKS4_S8_S8_RNS_8ios_baseES4_, symObjAddr: 0x15290, symBinAddr: 0x1000158E4, symSize: 0x248 }
  - { offsetInCU: 0x17941, offset: 0x17941, size: 0x8, addend: 0x0, symName: __ZSt28__throw_bad_array_new_lengthB8ue170006v, symObjAddr: 0x183C, symBinAddr: 0x100001E90, symSize: 0x34 }
  - { offsetInCU: 0x18F4A, offset: 0x18F4A, size: 0x8, addend: 0x0, symName: __ZNSt3__16vectorINS_12basic_stringIcNS_11char_traitsIcEENS_9allocatorIcEEEENS4_IS6_EEE26__swap_out_circular_bufferERNS_14__split_bufferIS6_RS7_EE, symObjAddr: 0x85CC, symBinAddr: 0x100008C20, symSize: 0x110 }
  - { offsetInCU: 0x19318, offset: 0x19318, size: 0x8, addend: 0x0, symName: __ZNSt3__16vectorI12ServerConfigNS_9allocatorIS1_EEE26__swap_out_circular_bufferERNS_14__split_bufferIS1_RS3_EE, symObjAddr: 0x137DC, symBinAddr: 0x100013E30, symSize: 0x110 }
  - { offsetInCU: 0x1B7A6, offset: 0x1B7A6, size: 0x8, addend: 0x0, symName: __ZN7NullPtrC1Ev, symObjAddr: 0x0, symBinAddr: 0x100000654, symSize: 0x2C }
  - { offsetInCU: 0x1B7D0, offset: 0x1B7D0, size: 0x8, addend: 0x0, symName: _main, symObjAddr: 0x2C, symBinAddr: 0x100000680, symSize: 0xE4 }
  - { offsetInCU: 0x1BABB, offset: 0x1BABB, size: 0x8, addend: 0x0, symName: __ZN6ConfigC1EPKc, symObjAddr: 0x110, symBinAddr: 0x100000764, symSize: 0x34 }
  - { offsetInCU: 0x1BAF3, offset: 0x1BAF3, size: 0x8, addend: 0x0, symName: __ZNK6ConfigixEi, symObjAddr: 0x190, symBinAddr: 0x1000007E4, symSize: 0xEC }
  - { offsetInCU: 0x1BB28, offset: 0x1BB28, size: 0x8, addend: 0x0, symName: __ZNK12ServerConfig13getServerNameEv, symObjAddr: 0x27C, symBinAddr: 0x1000008D0, symSize: 0x3C }
  - { offsetInCU: 0x1BB4E, offset: 0x1BB4E, size: 0x8, addend: 0x0, symName: __ZNSt3__113basic_ostreamIcNS_11char_traitsIcEEElsB8ue170006EPFRS3_S4_E, symObjAddr: 0x2B8, symBinAddr: 0x10000090C, symSize: 0x2C }
  - { offsetInCU: 0x1BB82, offset: 0x1BB82, size: 0x8, addend: 0x0, symName: __ZN6ConfigD1Ev, symObjAddr: 0x348, symBinAddr: 0x10000099C, symSize: 0x2C }
  - { offsetInCU: 0x1BBAC, offset: 0x1BBAC, size: 0x8, addend: 0x0, symName: __ZN7NullPtrC2Ev, symObjAddr: 0x374, symBinAddr: 0x1000009C8, symSize: 0x14 }
  - { offsetInCU: 0x1BBD6, offset: 0x1BBD6, size: 0x8, addend: 0x0, symName: __ZN6ConfigC2EPKc, symObjAddr: 0x388, symBinAddr: 0x1000009DC, symSize: 0x6C }
  - { offsetInCU: 0x1BC0E, offset: 0x1BC0E, size: 0x8, addend: 0x0, symName: __ZNSt3__16vectorI12ServerConfigNS_9allocatorIS1_EEEC1B8ue170006Ev, symObjAddr: 0x3F4, symBinAddr: 0x100000A48, symSize: 0x2C }
  - { offsetInCU: 0x1BC38, offset: 0x1BC38, size: 0x8, addend: 0x0, symName: __ZN6Config11configParseEPKc, symObjAddr: 0x420, symBinAddr: 0x100000A74, symSize: 0x1D8 }
  - { offsetInCU: 0x1BCB5, offset: 0x1BCB5, size: 0x8, addend: 0x0, symName: __ZNSt3__16vectorI12ServerConfigNS_9allocatorIS1_EEED1B8ue170006Ev, symObjAddr: 0x5F8, symBinAddr: 0x100000C4C, symSize: 0x2C }
  - { offsetInCU: 0x1BCDF, offset: 0x1BCDF, size: 0x8, addend: 0x0, symName: __ZNSt3__16vectorI12ServerConfigNS_9allocatorIS1_EEEC2B8ue170006Ev, symObjAddr: 0x624, symBinAddr: 0x100000C78, symSize: 0x44 }
  - { offsetInCU: 0x1BD15, offset: 0x1BD15, size: 0x8, addend: 0x0, symName: __ZNSt3__117__compressed_pairIP12ServerConfigNS_9allocatorIS1_EEEC1B8ue170006IDnNS_18__default_init_tagEEEOT_OT0_, symObjAddr: 0x668, symBinAddr: 0x100000CBC, symSize: 0x3C }
  - { offsetInCU: 0x1BD6D, offset: 0x1BD6D, size: 0x8, addend: 0x0, symName: __ZNSt3__117__compressed_pairIP12ServerConfigNS_9allocatorIS1_EEEC2B8ue170006IDnNS_18__default_init_tagEEEOT_OT0_, symObjAddr: 0x6A4, symBinAddr: 0x100000CF8, symSize: 0x40 }
  - { offsetInCU: 0x1BDC5, offset: 0x1BDC5, size: 0x8, addend: 0x0, symName: __ZNSt3__122__compressed_pair_elemIP12ServerConfigLi0ELb0EEC2B8ue170006IDnvEEOT_, symObjAddr: 0x6E4, symBinAddr: 0x100000D38, symSize: 0x1C }
  - { offsetInCU: 0x1BE07, offset: 0x1BE07, size: 0x8, addend: 0x0, symName: __ZNSt3__122__compressed_pair_elemINS_9allocatorI12ServerConfigEELi1ELb1EEC2B8ue170006ENS_18__default_init_tagE, symObjAddr: 0x700, symBinAddr: 0x100000D54, symSize: 0x2C }
  - { offsetInCU: 0x1BE3B, offset: 0x1BE3B, size: 0x8, addend: 0x0, symName: __ZNSt3__19allocatorI12ServerConfigEC2B8ue170006Ev, symObjAddr: 0x72C, symBinAddr: 0x100000D80, symSize: 0x2C }
  - { offsetInCU: 0x1BE65, offset: 0x1BE65, size: 0x8, addend: 0x0, symName: __ZNSt3__116__non_trivial_ifILb1ENS_9allocatorI12ServerConfigEEEC2B8ue170006Ev, symObjAddr: 0x758, symBinAddr: 0x100000DAC, symSize: 0x14 }
  - { offsetInCU: 0x1BE8F, offset: 0x1BE8F, size: 0x8, addend: 0x0, symName: __ZNSt3__114basic_ifstreamIcNS_11char_traitsIcEEEC1Ev, symObjAddr: 0x76C, symBinAddr: 0x100000DC0, symSize: 0xF4 }
  - { offsetInCU: 0x1BF1D, offset: 0x1BF1D, size: 0x8, addend: 0x0, symName: __ZNSt3__118basic_stringstreamIcNS_11char_traitsIcEENS_9allocatorIcEEEC1B8ue170006Ev, symObjAddr: 0x860, symBinAddr: 0x100000EB4, symSize: 0x110 }
  - { offsetInCU: 0x1BF47, offset: 0x1BF47, size: 0x8, addend: 0x0, symName: __ZNKSt3__19basic_iosIcNS_11char_traitsIcEEE3eofB8ue170006Ev, symObjAddr: 0x970, symBinAddr: 0x100000FC4, symSize: 0x28 }
  - { offsetInCU: 0x1BF6D, offset: 0x1BF6D, size: 0x8, addend: 0x0, symName: __ZNSt3__112basic_stringIcNS_11char_traitsIcEENS_9allocatorIcEEEC1B8ue170006Ev, symObjAddr: 0x998, symBinAddr: 0x100000FEC, symSize: 0x2C }
  - { offsetInCU: 0x1BF97, offset: 0x1BF97, size: 0x8, addend: 0x0, symName: __ZNKSt3__112basic_stringIcNS_11char_traitsIcEENS_9allocatorIcEEE4findB8ue170006EPKcm, symObjAddr: 0xA20, symBinAddr: 0x100001074, symSize: 0x74 }
  - { offsetInCU: 0x1BFDD, offset: 0x1BFDD, size: 0x8, addend: 0x0, symName: __ZN6Config19extractServerConfigERNSt3__114basic_ifstreamIcNS0_11char_traitsIcEEEE, symObjAddr: 0xA94, symBinAddr: 0x1000010E8, symSize: 0x4BC }
  - { offsetInCU: 0x1C06E, offset: 0x1C06E, size: 0x8, addend: 0x0, symName: __ZN6Config15addServerConfigERK12ServerConfig, symObjAddr: 0xF50, symBinAddr: 0x1000015A4, symSize: 0x2C }
  - { offsetInCU: 0x1C0A2, offset: 0x1C0A2, size: 0x8, addend: 0x0, symName: __ZN12ServerConfigD1Ev, symObjAddr: 0xF7C, symBinAddr: 0x1000015D0, symSize: 0x2C }
  - { offsetInCU: 0x1C0D1, offset: 0x1C0D1, size: 0x8, addend: 0x0, symName: __ZNSt3__118basic_stringstreamIcNS_11char_traitsIcEENS_9allocatorIcEEED1Ev, symObjAddr: 0xFA8, symBinAddr: 0x1000015FC, symSize: 0x70 }
  - { offsetInCU: 0x1C103, offset: 0x1C103, size: 0x8, addend: 0x0, symName: __ZNSt3__114basic_ifstreamIcNS_11char_traitsIcEEED1Ev, symObjAddr: 0x1018, symBinAddr: 0x10000166C, symSize: 0x70 }
  - { offsetInCU: 0x1C130, offset: 0x1C130, size: 0x8, addend: 0x0, symName: __ZNSt3__19basic_iosIcNS_11char_traitsIcEEEC2B8ue170006Ev, symObjAddr: 0x1088, symBinAddr: 0x1000016DC, symSize: 0x44 }
  - { offsetInCU: 0x1C15A, offset: 0x1C15A, size: 0x8, addend: 0x0, symName: __ZNSt3__113basic_istreamIcNS_11char_traitsIcEEEC2B8ue170006EPNS_15basic_streambufIcS2_EE, symObjAddr: 0x10CC, symBinAddr: 0x100001720, symSize: 0x64 }
  - { offsetInCU: 0x1C19F, offset: 0x1C19F, size: 0x8, addend: 0x0, symName: __ZNSt3__18ios_baseC2B8ue170006Ev, symObjAddr: 0x1130, symBinAddr: 0x100001784, symSize: 0x24 }
  - { offsetInCU: 0x1C1C9, offset: 0x1C1C9, size: 0x8, addend: 0x0, symName: __ZNSt3__19basic_iosIcNS_11char_traitsIcEEE4initB8ue170006EPNS_15basic_streambufIcS2_EE, symObjAddr: 0x1154, symBinAddr: 0x1000017A8, symSize: 0x44 }
  - { offsetInCU: 0x1C200, offset: 0x1C200, size: 0x8, addend: 0x0, symName: __ZNSt3__111char_traitsIcE3eofB8ue170006Ev, symObjAddr: 0x1198, symBinAddr: 0x1000017EC, symSize: 0x8 }
  - { offsetInCU: 0x1C214, offset: 0x1C214, size: 0x8, addend: 0x0, symName: __ZNSt3__114basic_iostreamIcNS_11char_traitsIcEEEC2B8ue170006EPNS_15basic_streambufIcS2_EE, symObjAddr: 0x11A0, symBinAddr: 0x1000017F4, symSize: 0xB4 }
  - { offsetInCU: 0x1C25A, offset: 0x1C25A, size: 0x8, addend: 0x0, symName: __ZNSt3__115basic_stringbufIcNS_11char_traitsIcEENS_9allocatorIcEEEC1B8ue170006Ej, symObjAddr: 0x1254, symBinAddr: 0x1000018A8, symSize: 0x34 }
  - { offsetInCU: 0x1C293, offset: 0x1C293, size: 0x8, addend: 0x0, symName: __ZNSt3__113basic_ostreamIcNS_11char_traitsIcEEEC2B8ue170006Ev, symObjAddr: 0x1288, symBinAddr: 0x1000018DC, symSize: 0x34 }
  - { offsetInCU: 0x1C2CA, offset: 0x1C2CA, size: 0x8, addend: 0x0, symName: __ZNSt3__115basic_stringbufIcNS_11char_traitsIcEENS_9allocatorIcEEEC2B8ue170006Ej, symObjAddr: 0x12BC, symBinAddr: 0x100001910, symSize: 0x90 }
  - { offsetInCU: 0x1C303, offset: 0x1C303, size: 0x8, addend: 0x0, symName: __ZNKSt3__18ios_base3eofB8ue170006Ev, symObjAddr: 0x134C, symBinAddr: 0x1000019A0, symSize: 0x24 }
  - { offsetInCU: 0x1C32B, offset: 0x1C32B, size: 0x8, addend: 0x0, symName: __ZNSt3__112basic_stringIcNS_11char_traitsIcEENS_9allocatorIcEEEC2B8ue170006Ev, symObjAddr: 0x1370, symBinAddr: 0x1000019C4, symSize: 0x3C }
  - { offsetInCU: 0x1C355, offset: 0x1C355, size: 0x8, addend: 0x0, symName: __ZNSt3__117__compressed_pairINS_12basic_stringIcNS_11char_traitsIcEENS_9allocatorIcEEE5__repES5_EC1B8ue170006INS_18__default_init_tagESA_EEOT_OT0_, symObjAddr: 0x13AC, symBinAddr: 0x100001A00, symSize: 0x3C }
  - { offsetInCU: 0x1C3AD, offset: 0x1C3AD, size: 0x8, addend: 0x0, symName: __ZNSt3__112basic_stringIcNS_11char_traitsIcEENS_9allocatorIcEEE14__default_initB8ue170006Ev, symObjAddr: 0x13E8, symBinAddr: 0x100001A3C, symSize: 0xB0 }
  - { offsetInCU: 0x1C3FF, offset: 0x1C3FF, size: 0x8, addend: 0x0, symName: __ZNSt3__117__compressed_pairINS_12basic_stringIcNS_11char_traitsIcEENS_9allocatorIcEEE5__repES5_EC2B8ue170006INS_18__default_init_tagESA_EEOT_OT0_, symObjAddr: 0x1498, symBinAddr: 0x100001AEC, symSize: 0x3C }
  - { offsetInCU: 0x1C457, offset: 0x1C457, size: 0x8, addend: 0x0, symName: __ZNSt3__122__compressed_pair_elemINS_12basic_stringIcNS_11char_traitsIcEENS_9allocatorIcEEE5__repELi0ELb0EEC2B8ue170006ENS_18__default_init_tagE, symObjAddr: 0x14D4, symBinAddr: 0x100001B28, symSize: 0x14 }
  - { offsetInCU: 0x1C48B, offset: 0x1C48B, size: 0x8, addend: 0x0, symName: __ZNSt3__122__compressed_pair_elemINS_9allocatorIcEELi1ELb1EEC2B8ue170006ENS_18__default_init_tagE, symObjAddr: 0x14E8, symBinAddr: 0x100001B3C, symSize: 0x2C }
  - { offsetInCU: 0x1C4BF, offset: 0x1C4BF, size: 0x8, addend: 0x0, symName: __ZNSt3__19allocatorIcEC2B8ue170006Ev, symObjAddr: 0x1514, symBinAddr: 0x100001B68, symSize: 0x2C }
  - { offsetInCU: 0x1C4E9, offset: 0x1C4E9, size: 0x8, addend: 0x0, symName: __ZNSt3__116__non_trivial_ifILb1ENS_9allocatorIcEEEC2B8ue170006Ev, symObjAddr: 0x1540, symBinAddr: 0x100001B94, symSize: 0x14 }
  - { offsetInCU: 0x1C513, offset: 0x1C513, size: 0x8, addend: 0x0, symName: __ZNSt3__117__compressed_pairINS_12basic_stringIcNS_11char_traitsIcEENS_9allocatorIcEEE5__repES5_E5firstB8ue170006Ev, symObjAddr: 0x1554, symBinAddr: 0x100001BA8, symSize: 0x24 }
  - { offsetInCU: 0x1C539, offset: 0x1C539, size: 0x8, addend: 0x0, symName: __ZNSt3__112basic_stringIcNS_11char_traitsIcEENS_9allocatorIcEEE11__recommendB8ue170006Em, symObjAddr: 0x1584, symBinAddr: 0x100001BD8, symSize: 0x9C }
  - { offsetInCU: 0x1C56C, offset: 0x1C56C, size: 0x8, addend: 0x0, symName: __ZNSt3__116allocator_traitsINS_9allocatorIcEEE8allocateB8ue170006ERS2_m, symObjAddr: 0x1620, symBinAddr: 0x100001C74, symSize: 0x2C }
  - { offsetInCU: 0x1C59F, offset: 0x1C59F, size: 0x8, addend: 0x0, symName: __ZNSt3__112basic_stringIcNS_11char_traitsIcEENS_9allocatorIcEEE7__allocB8ue170006Ev, symObjAddr: 0x164C, symBinAddr: 0x100001CA0, symSize: 0x24 }
  - { offsetInCU: 0x1C5C5, offset: 0x1C5C5, size: 0x8, addend: 0x0, symName: __ZNSt3__112basic_stringIcNS_11char_traitsIcEENS_9allocatorIcEEE16__begin_lifetimeB8ue170006EPcm, symObjAddr: 0x1670, symBinAddr: 0x100001CC4, symSize: 0x14 }
  - { offsetInCU: 0x1C5F8, offset: 0x1C5F8, size: 0x8, addend: 0x0, symName: __ZNSt3__112basic_stringIcNS_11char_traitsIcEENS_9allocatorIcEEE18__set_long_pointerB8ue170006EPc, symObjAddr: 0x1684, symBinAddr: 0x100001CD8, symSize: 0x38 }
  - { offsetInCU: 0x1C62D, offset: 0x1C62D, size: 0x8, addend: 0x0, symName: __ZNSt3__112basic_stringIcNS_11char_traitsIcEENS_9allocatorIcEEE14__set_long_capB8ue170006Em, symObjAddr: 0x16BC, symBinAddr: 0x100001D10, symSize: 0x70 }
  - { offsetInCU: 0x1C662, offset: 0x1C662, size: 0x8, addend: 0x0, symName: __ZNSt3__112basic_stringIcNS_11char_traitsIcEENS_9allocatorIcEEE15__set_long_sizeB8ue170006Em, symObjAddr: 0x172C, symBinAddr: 0x100001D80, symSize: 0x38 }
  - { offsetInCU: 0x1C697, offset: 0x1C697, size: 0x8, addend: 0x0, symName: __ZNSt3__122__compressed_pair_elemINS_12basic_stringIcNS_11char_traitsIcEENS_9allocatorIcEEE5__repELi0ELb0EE5__getB8ue170006Ev, symObjAddr: 0x1764, symBinAddr: 0x100001DB8, symSize: 0x14 }
  - { offsetInCU: 0x1C6BD, offset: 0x1C6BD, size: 0x8, addend: 0x0, symName: __ZNSt3__112basic_stringIcNS_11char_traitsIcEENS_9allocatorIcEEE10__align_itB8ue170006ILm16EEEmm, symObjAddr: 0x1778, symBinAddr: 0x100001DCC, symSize: 0x1C }
  - { offsetInCU: 0x1C6EB, offset: 0x1C6EB, size: 0x8, addend: 0x0, symName: __ZNSt3__19allocatorIcE8allocateB8ue170006Em, symObjAddr: 0x1794, symBinAddr: 0x100001DE8, symSize: 0x84 }
  - { offsetInCU: 0x1C729, offset: 0x1C729, size: 0x8, addend: 0x0, symName: __ZNSt3__116allocator_traitsINS_9allocatorIcEEE8max_sizeB8ue170006IS2_vEEmRKS2_, symObjAddr: 0x1818, symBinAddr: 0x100001E6C, symSize: 0x24 }
  - { offsetInCU: 0x1C757, offset: 0x1C757, size: 0x8, addend: 0x0, symName: __ZNKSt3__19allocatorIcE8max_sizeB8ue170006Ev, symObjAddr: 0x1898, symBinAddr: 0x100001EEC, symSize: 0x14 }
  - { offsetInCU: 0x1C77D, offset: 0x1C77D, size: 0x8, addend: 0x0, symName: __ZNSt3__117__compressed_pairINS_12basic_stringIcNS_11char_traitsIcEENS_9allocatorIcEEE5__repES5_E6secondB8ue170006Ev, symObjAddr: 0x18D0, symBinAddr: 0x100001F24, symSize: 0x24 }
  - { offsetInCU: 0x1C7A3, offset: 0x1C7A3, size: 0x8, addend: 0x0, symName: __ZNSt3__122__compressed_pair_elemINS_9allocatorIcEELi1ELb1EE5__getB8ue170006Ev, symObjAddr: 0x18F4, symBinAddr: 0x100001F48, symSize: 0x14 }
  - { offsetInCU: 0x1C7C9, offset: 0x1C7C9, size: 0x8, addend: 0x0, symName: __ZNKSt3__19basic_iosIcNS_11char_traitsIcEEE5widenB8ue170006Ec, symObjAddr: 0x1B40, symBinAddr: 0x100002194, symSize: 0x8C }
  - { offsetInCU: 0x1C81E, offset: 0x1C81E, size: 0x8, addend: 0x0, symName: __ZNKSt3__113basic_istreamIcNS_11char_traitsIcEEE6sentrycvbB8ue170006Ev, symObjAddr: 0x1BCC, symBinAddr: 0x100002220, symSize: 0x1C }
  - { offsetInCU: 0x1C844, offset: 0x1C844, size: 0x8, addend: 0x0, symName: __ZNSt3__112basic_stringIcNS_11char_traitsIcEENS_9allocatorIcEEE5clearB8ue170006Ev, symObjAddr: 0x1BE8, symBinAddr: 0x10000223C, symSize: 0x78 }
  - { offsetInCU: 0x1C86C, offset: 0x1C86C, size: 0x8, addend: 0x0, symName: __ZNKSt3__19basic_iosIcNS_11char_traitsIcEEE5rdbufB8ue170006Ev, symObjAddr: 0x1C60, symBinAddr: 0x1000022B4, symSize: 0x24 }
  - { offsetInCU: 0x1C894, offset: 0x1C894, size: 0x8, addend: 0x0, symName: __ZNSt3__115basic_streambufIcNS_11char_traitsIcEEE6sbumpcB8ue170006Ev, symObjAddr: 0x1C84, symBinAddr: 0x1000022D8, symSize: 0x78 }
  - { offsetInCU: 0x1C8BA, offset: 0x1C8BA, size: 0x8, addend: 0x0, symName: __ZNSt3__111char_traitsIcE11eq_int_typeB8ue170006Eii, symObjAddr: 0x1CFC, symBinAddr: 0x100002350, symSize: 0x28 }
  - { offsetInCU: 0x1C8ED, offset: 0x1C8ED, size: 0x8, addend: 0x0, symName: __ZNSt3__111char_traitsIcE12to_char_typeB8ue170006Ei, symObjAddr: 0x1D24, symBinAddr: 0x100002378, symSize: 0x18 }
  - { offsetInCU: 0x1C910, offset: 0x1C910, size: 0x8, addend: 0x0, symName: __ZNSt3__111char_traitsIcE2eqEcc, symObjAddr: 0x1D3C, symBinAddr: 0x100002390, symSize: 0x28 }
  - { offsetInCU: 0x1C941, offset: 0x1C941, size: 0x8, addend: 0x0, symName: __ZNKSt3__112basic_stringIcNS_11char_traitsIcEENS_9allocatorIcEEE4sizeB8ue170006Ev, symObjAddr: 0x1D64, symBinAddr: 0x1000023B8, symSize: 0x54 }
  - { offsetInCU: 0x1C967, offset: 0x1C967, size: 0x8, addend: 0x0, symName: __ZNKSt3__112basic_stringIcNS_11char_traitsIcEENS_9allocatorIcEEE8max_sizeB8ue170006Ev, symObjAddr: 0x1DB8, symBinAddr: 0x10000240C, symSize: 0xAC }
  - { offsetInCU: 0x1C9B9, offset: 0x1C9B9, size: 0x8, addend: 0x0, symName: __ZNSt3__18ios_base18__setstate_nothrowB8ue170006Ej, symObjAddr: 0x1E64, symBinAddr: 0x1000024B8, symSize: 0x64 }
  - { offsetInCU: 0x1C9EE, offset: 0x1C9EE, size: 0x8, addend: 0x0, symName: __ZNKSt3__19basic_iosIcNS_11char_traitsIcEEE10exceptionsB8ue170006Ev, symObjAddr: 0x1EC8, symBinAddr: 0x10000251C, symSize: 0x24 }
  - { offsetInCU: 0x1CA14, offset: 0x1CA14, size: 0x8, addend: 0x0, symName: __ZNSt3__19basic_iosIcNS_11char_traitsIcEEE8setstateB8ue170006Ej, symObjAddr: 0x1EEC, symBinAddr: 0x100002540, symSize: 0x2C }
  - { offsetInCU: 0x1CA49, offset: 0x1CA49, size: 0x8, addend: 0x0, symName: __ZNKSt3__112basic_stringIcNS_11char_traitsIcEENS_9allocatorIcEEE9__is_longB8ue170006Ev, symObjAddr: 0x1F18, symBinAddr: 0x10000256C, symSize: 0x74 }
  - { offsetInCU: 0x1CA6F, offset: 0x1CA6F, size: 0x8, addend: 0x0, symName: __ZNSt3__111char_traitsIcE6assignB8ue170006ERcRKc, symObjAddr: 0x1F8C, symBinAddr: 0x1000025E0, symSize: 0x24 }
  - { offsetInCU: 0x1CAA0, offset: 0x1CAA0, size: 0x8, addend: 0x0, symName: __ZNSt3__112basic_stringIcNS_11char_traitsIcEENS_9allocatorIcEEE18__get_long_pointerB8ue170006Ev, symObjAddr: 0x1FB0, symBinAddr: 0x100002604, symSize: 0x28 }
  - { offsetInCU: 0x1CAC6, offset: 0x1CAC6, size: 0x8, addend: 0x0, symName: __ZNSt3__112basic_stringIcNS_11char_traitsIcEENS_9allocatorIcEEE19__get_short_pointerB8ue170006Ev, symObjAddr: 0x1FD8, symBinAddr: 0x10000262C, symSize: 0x28 }
  - { offsetInCU: 0x1CAEC, offset: 0x1CAEC, size: 0x8, addend: 0x0, symName: __ZNSt3__112basic_stringIcNS_11char_traitsIcEENS_9allocatorIcEEE16__set_short_sizeB8ue170006Em, symObjAddr: 0x2000, symBinAddr: 0x100002654, symSize: 0x78 }
  - { offsetInCU: 0x1CB21, offset: 0x1CB21, size: 0x8, addend: 0x0, symName: __ZNKSt3__117__compressed_pairINS_12basic_stringIcNS_11char_traitsIcEENS_9allocatorIcEEE5__repES5_E5firstB8ue170006Ev, symObjAddr: 0x2078, symBinAddr: 0x1000026CC, symSize: 0x24 }
  - { offsetInCU: 0x1CB47, offset: 0x1CB47, size: 0x8, addend: 0x0, symName: __ZNKSt3__122__compressed_pair_elemINS_12basic_stringIcNS_11char_traitsIcEENS_9allocatorIcEEE5__repELi0ELb0EE5__getB8ue170006Ev, symObjAddr: 0x209C, symBinAddr: 0x1000026F0, symSize: 0x14 }
  - { offsetInCU: 0x1CB6D, offset: 0x1CB6D, size: 0x8, addend: 0x0, symName: __ZNSt3__114pointer_traitsIPcE10pointer_toB8ue170006ERc, symObjAddr: 0x20B0, symBinAddr: 0x100002704, symSize: 0x14 }
  - { offsetInCU: 0x1CB90, offset: 0x1CB90, size: 0x8, addend: 0x0, symName: __ZNKSt3__18ios_base5rdbufB8ue170006Ev, symObjAddr: 0x20C4, symBinAddr: 0x100002718, symSize: 0x18 }
  - { offsetInCU: 0x1CBB6, offset: 0x1CBB6, size: 0x8, addend: 0x0, symName: __ZNSt3__111char_traitsIcE11to_int_typeB8ue170006Ec, symObjAddr: 0x20DC, symBinAddr: 0x100002730, symSize: 0x14 }
  - { offsetInCU: 0x1CBDA, offset: 0x1CBDA, size: 0x8, addend: 0x0, symName: __ZNKSt3__112basic_stringIcNS_11char_traitsIcEENS_9allocatorIcEEE15__get_long_sizeB8ue170006Ev, symObjAddr: 0x20F0, symBinAddr: 0x100002744, symSize: 0x28 }
  - { offsetInCU: 0x1CC00, offset: 0x1CC00, size: 0x8, addend: 0x0, symName: __ZNKSt3__112basic_stringIcNS_11char_traitsIcEENS_9allocatorIcEEE16__get_short_sizeB8ue170006Ev, symObjAddr: 0x2118, symBinAddr: 0x10000276C, symSize: 0x34 }
  - { offsetInCU: 0x1CC26, offset: 0x1CC26, size: 0x8, addend: 0x0, symName: __ZNKSt3__112basic_stringIcNS_11char_traitsIcEENS_9allocatorIcEEE7__allocB8ue170006Ev, symObjAddr: 0x214C, symBinAddr: 0x1000027A0, symSize: 0x24 }
  - { offsetInCU: 0x1CC4C, offset: 0x1CC4C, size: 0x8, addend: 0x0, symName: __ZNSt3__114numeric_limitsImE3maxB8ue170006Ev, symObjAddr: 0x2170, symBinAddr: 0x1000027C4, symSize: 0x14 }
  - { offsetInCU: 0x1CC60, offset: 0x1CC60, size: 0x8, addend: 0x0, symName: __ZNKSt3__117__compressed_pairINS_12basic_stringIcNS_11char_traitsIcEENS_9allocatorIcEEE5__repES5_E6secondB8ue170006Ev, symObjAddr: 0x2184, symBinAddr: 0x1000027D8, symSize: 0x24 }
  - { offsetInCU: 0x1CC86, offset: 0x1CC86, size: 0x8, addend: 0x0, symName: __ZNKSt3__122__compressed_pair_elemINS_9allocatorIcEELi1ELb1EE5__getB8ue170006Ev, symObjAddr: 0x21A8, symBinAddr: 0x1000027FC, symSize: 0x14 }
  - { offsetInCU: 0x1CCAC, offset: 0x1CCAC, size: 0x8, addend: 0x0, symName: __ZNSt3__123__libcpp_numeric_limitsImLb1EE3maxB8ue170006Ev, symObjAddr: 0x21BC, symBinAddr: 0x100002810, symSize: 0x8 }
  - { offsetInCU: 0x1CCC0, offset: 0x1CCC0, size: 0x8, addend: 0x0, symName: __ZNKSt3__18ios_base10exceptionsB8ue170006Ev, symObjAddr: 0x21C4, symBinAddr: 0x100002818, symSize: 0x18 }
  - { offsetInCU: 0x1CCE8, offset: 0x1CCE8, size: 0x8, addend: 0x0, symName: __ZNSt3__18ios_base8setstateB8ue170006Ej, symObjAddr: 0x21DC, symBinAddr: 0x100002830, symSize: 0x34 }
  - { offsetInCU: 0x1CD56, offset: 0x1CD56, size: 0x8, addend: 0x0, symName: __ZNKSt3__15ctypeIcE5widenB8ue170006Ec, symObjAddr: 0x223C, symBinAddr: 0x100002890, symSize: 0x38 }
  - { offsetInCU: 0x1CD8B, offset: 0x1CD8B, size: 0x8, addend: 0x0, symName: __ZNKSt3__112basic_stringIcNS_11char_traitsIcEENS_9allocatorIcEEE4dataB8ue170006Ev, symObjAddr: 0x2358, symBinAddr: 0x1000029AC, symSize: 0x28 }
  - { offsetInCU: 0x1CDB1, offset: 0x1CDB1, size: 0x8, addend: 0x0, symName: __ZNSt3__111char_traitsIcE6lengthB8ue170006EPKc, symObjAddr: 0x2380, symBinAddr: 0x1000029D4, symSize: 0x48 }
  - { offsetInCU: 0x1CDD4, offset: 0x1CDD4, size: 0x8, addend: 0x0, symName: __ZNSt3__111char_traitsIcE4findB8ue170006EPKcmRS2_, symObjAddr: 0x251C, symBinAddr: 0x100002B70, symSize: 0x84 }
  - { offsetInCU: 0x1CE13, offset: 0x1CE13, size: 0x8, addend: 0x0, symName: __ZNSt3__111char_traitsIcE7compareB8ue170006EPKcS3_m, symObjAddr: 0x25A0, symBinAddr: 0x100002BF4, symSize: 0x64 }
  - { offsetInCU: 0x1CE52, offset: 0x1CE52, size: 0x8, addend: 0x0, symName: __ZNKSt3__112basic_stringIcNS_11char_traitsIcEENS_9allocatorIcEEE13__get_pointerB8ue170006Ev, symObjAddr: 0x26D8, symBinAddr: 0x100002D2C, symSize: 0x54 }
  - { offsetInCU: 0x1CE78, offset: 0x1CE78, size: 0x8, addend: 0x0, symName: __ZNKSt3__112basic_stringIcNS_11char_traitsIcEENS_9allocatorIcEEE18__get_long_pointerB8ue170006Ev, symObjAddr: 0x272C, symBinAddr: 0x100002D80, symSize: 0x28 }
  - { offsetInCU: 0x1CE9E, offset: 0x1CE9E, size: 0x8, addend: 0x0, symName: __ZNKSt3__112basic_stringIcNS_11char_traitsIcEENS_9allocatorIcEEE19__get_short_pointerB8ue170006Ev, symObjAddr: 0x2754, symBinAddr: 0x100002DA8, symSize: 0x28 }
  - { offsetInCU: 0x1CEC4, offset: 0x1CEC4, size: 0x8, addend: 0x0, symName: __ZNSt3__114pointer_traitsIPKcE10pointer_toB8ue170006ERS1_, symObjAddr: 0x277C, symBinAddr: 0x100002DD0, symSize: 0x14 }
  - { offsetInCU: 0x1CEE7, offset: 0x1CEE7, size: 0x8, addend: 0x0, symName: __ZN12ServerConfigC1Ev, symObjAddr: 0x27B4, symBinAddr: 0x100002E08, symSize: 0x2C }
  - { offsetInCU: 0x1CF11, offset: 0x1CF11, size: 0x8, addend: 0x0, symName: __ZNKSt3__112basic_stringIcNS_11char_traitsIcEENS_9allocatorIcEEE6substrB8ue170006Emm, symObjAddr: 0x28A0, symBinAddr: 0x100002EF4, symSize: 0x68 }
  - { offsetInCU: 0x1CF55, offset: 0x1CF55, size: 0x8, addend: 0x0, symName: __ZNSt3__113unordered_mapIiNS_12basic_stringIcNS_11char_traitsIcEENS_9allocatorIcEEEENS_4hashIiEENS_8equal_toIiEENS4_INS_4pairIKiS6_EEEEEixERSC_, symObjAddr: 0x2908, symBinAddr: 0x100002F5C, symSize: 0x128 }
  - { offsetInCU: 0x1CFBA, offset: 0x1CFBA, size: 0x8, addend: 0x0, symName: __ZN6Config21extractLocationConfigERNSt3__114basic_ifstreamIcNS0_11char_traitsIcEEEE, symObjAddr: 0x2A30, symBinAddr: 0x100003084, symSize: 0x56C }
  - { offsetInCU: 0x1D038, offset: 0x1D038, size: 0x8, addend: 0x0, symName: __ZNSt3__13mapINS_12basic_stringIcNS_11char_traitsIcEENS_9allocatorIcEEEE14LocationConfigNS_4lessIS6_EENS4_INS_4pairIKS6_S7_EEEEE6insertB8ue170006ERKSC_, symObjAddr: 0x2F9C, symBinAddr: 0x1000035F0, symSize: 0x4C }
  - { offsetInCU: 0x1D087, offset: 0x1D087, size: 0x8, addend: 0x0, symName: __ZNSt3__14pairIKNS_12basic_stringIcNS_11char_traitsIcEENS_9allocatorIcEEEE14LocationConfigEC1B8ue170006IS6_S8_EERKNS0_IT_T0_EE, symObjAddr: 0x3028, symBinAddr: 0x10000367C, symSize: 0x34 }
  - { offsetInCU: 0x1D0D1, offset: 0x1D0D1, size: 0x8, addend: 0x0, symName: __ZNSt3__14pairIKNS_12basic_stringIcNS_11char_traitsIcEENS_9allocatorIcEEEE14LocationConfigED1Ev, symObjAddr: 0x305C, symBinAddr: 0x1000036B0, symSize: 0x2C }
  - { offsetInCU: 0x1D0FD, offset: 0x1D0FD, size: 0x8, addend: 0x0, symName: __ZNSt3__14pairINS_12basic_stringIcNS_11char_traitsIcEENS_9allocatorIcEEEE14LocationConfigED1Ev, symObjAddr: 0x3088, symBinAddr: 0x1000036DC, symSize: 0x2C }
  - { offsetInCU: 0x1D12E, offset: 0x1D12E, size: 0x8, addend: 0x0, symName: __ZN14LocationConfigD1Ev, symObjAddr: 0x30B4, symBinAddr: 0x100003708, symSize: 0x2C }
  - { offsetInCU: 0x1D15A, offset: 0x1D15A, size: 0x8, addend: 0x0, symName: __ZN12ServerConfigC2Ev, symObjAddr: 0x30E0, symBinAddr: 0x100003734, symSize: 0xD8 }
  - { offsetInCU: 0x1D184, offset: 0x1D184, size: 0x8, addend: 0x0, symName: __ZNSt3__113unordered_mapIiNS_12basic_stringIcNS_11char_traitsIcEENS_9allocatorIcEEEENS_4hashIiEENS_8equal_toIiEENS4_INS_4pairIKiS6_EEEEEC1B8ue170006Ev, symObjAddr: 0x31B8, symBinAddr: 0x10000380C, symSize: 0x2C }
  - { offsetInCU: 0x1D1AE, offset: 0x1D1AE, size: 0x8, addend: 0x0, symName: __ZNSt3__13mapINS_12basic_stringIcNS_11char_traitsIcEENS_9allocatorIcEEEE14LocationConfigNS_4lessIS6_EENS4_INS_4pairIKS6_S7_EEEEEC1B8ue170006Ev, symObjAddr: 0x31E4, symBinAddr: 0x100003838, symSize: 0x2C }
  - { offsetInCU: 0x1D1D8, offset: 0x1D1D8, size: 0x8, addend: 0x0, symName: __ZNSt3__113unordered_mapIiNS_12basic_stringIcNS_11char_traitsIcEENS_9allocatorIcEEEENS_4hashIiEENS_8equal_toIiEENS4_INS_4pairIKiS6_EEEEED1B8ue170006Ev, symObjAddr: 0x3210, symBinAddr: 0x100003864, symSize: 0x2C }
  - { offsetInCU: 0x1D202, offset: 0x1D202, size: 0x8, addend: 0x0, symName: __ZNSt3__113unordered_mapIiNS_12basic_stringIcNS_11char_traitsIcEENS_9allocatorIcEEEENS_4hashIiEENS_8equal_toIiEENS4_INS_4pairIKiS6_EEEEEC2B8ue170006Ev, symObjAddr: 0x323C, symBinAddr: 0x100003890, symSize: 0x2C }
  - { offsetInCU: 0x1D22C, offset: 0x1D22C, size: 0x8, addend: 0x0, symName: __ZNSt3__112__hash_tableINS_17__hash_value_typeIiNS_12basic_stringIcNS_11char_traitsIcEENS_9allocatorIcEEEEEENS_22__unordered_map_hasherIiS8_NS_4hashIiEENS_8equal_toIiEELb1EEENS_21__unordered_map_equalIiS8_SD_SB_Lb1EEENS5_IS8_EEEC1Ev, symObjAddr: 0x3268, symBinAddr: 0x1000038BC, symSize: 0x2C }
  - { offsetInCU: 0x1D258, offset: 0x1D258, size: 0x8, addend: 0x0, symName: __ZNSt3__112__hash_tableINS_17__hash_value_typeIiNS_12basic_stringIcNS_11char_traitsIcEENS_9allocatorIcEEEEEENS_22__unordered_map_hasherIiS8_NS_4hashIiEENS_8equal_toIiEELb1EEENS_21__unordered_map_equalIiS8_SD_SB_Lb1EEENS5_IS8_EEEC2Ev, symObjAddr: 0x3294, symBinAddr: 0x1000038E8, symSize: 0xA4 }
  - { offsetInCU: 0x1D284, offset: 0x1D284, size: 0x8, addend: 0x0, symName: __ZNSt3__110unique_ptrIA_PNS_16__hash_node_baseIPNS_11__hash_nodeINS_17__hash_value_typeIiNS_12basic_stringIcNS_11char_traitsIcEENS_9allocatorIcEEEEEEPvEEEENS_25__bucket_list_deallocatorINS7_ISF_EEEEEC1B8ue170006ILb1EvEEv, symObjAddr: 0x3338, symBinAddr: 0x10000398C, symSize: 0x2C }
  - { offsetInCU: 0x1D2B9, offset: 0x1D2B9, size: 0x8, addend: 0x0, symName: __ZNSt3__117__compressed_pairINS_16__hash_node_baseIPNS_11__hash_nodeINS_17__hash_value_typeIiNS_12basic_stringIcNS_11char_traitsIcEENS_9allocatorIcEEEEEEPvEEEENS7_ISC_EEEC1B8ue170006ILb1EvEEv, symObjAddr: 0x3364, symBinAddr: 0x1000039B8, symSize: 0x2C }
  - { offsetInCU: 0x1D2F4, offset: 0x1D2F4, size: 0x8, addend: 0x0, symName: __ZNSt3__117__compressed_pairImNS_22__unordered_map_hasherIiNS_17__hash_value_typeIiNS_12basic_stringIcNS_11char_traitsIcEENS_9allocatorIcEEEEEENS_4hashIiEENS_8equal_toIiEELb1EEEEC1B8ue170006IiNS_18__default_init_tagEEEOT_OT0_, symObjAddr: 0x3390, symBinAddr: 0x1000039E4, symSize: 0x3C }
  - { offsetInCU: 0x1D352, offset: 0x1D352, size: 0x8, addend: 0x0, symName: __ZNSt3__117__compressed_pairIfNS_21__unordered_map_equalIiNS_17__hash_value_typeIiNS_12basic_stringIcNS_11char_traitsIcEENS_9allocatorIcEEEEEENS_8equal_toIiEENS_4hashIiEELb1EEEEC1B8ue170006IfNS_18__default_init_tagEEEOT_OT0_, symObjAddr: 0x33CC, symBinAddr: 0x100003A20, symSize: 0x3C }
  - { offsetInCU: 0x1D3AA, offset: 0x1D3AA, size: 0x8, addend: 0x0, symName: __ZNSt3__110unique_ptrIA_PNS_16__hash_node_baseIPNS_11__hash_nodeINS_17__hash_value_typeIiNS_12basic_stringIcNS_11char_traitsIcEENS_9allocatorIcEEEEEEPvEEEENS_25__bucket_list_deallocatorINS7_ISF_EEEEED1B8ue170006Ev, symObjAddr: 0x3408, symBinAddr: 0x100003A5C, symSize: 0x2C }
  - { offsetInCU: 0x1D3D4, offset: 0x1D3D4, size: 0x8, addend: 0x0, symName: __ZNSt3__110unique_ptrIA_PNS_16__hash_node_baseIPNS_11__hash_nodeINS_17__hash_value_typeIiNS_12basic_stringIcNS_11char_traitsIcEENS_9allocatorIcEEEEEEPvEEEENS_25__bucket_list_deallocatorINS7_ISF_EEEEEC2B8ue170006ILb1EvEEv, symObjAddr: 0x3434, symBinAddr: 0x100003A88, symSize: 0x50 }
  - { offsetInCU: 0x1D40F, offset: 0x1D40F, size: 0x8, addend: 0x0, symName: __ZNSt3__117__compressed_pairIPPNS_16__hash_node_baseIPNS_11__hash_nodeINS_17__hash_value_typeIiNS_12basic_stringIcNS_11char_traitsIcEENS_9allocatorIcEEEEEEPvEEEENS_25__bucket_list_deallocatorINS7_ISF_EEEEEC1B8ue170006INS_16__value_init_tagESM_EEOT_OT0_, symObjAddr: 0x3484, symBinAddr: 0x100003AD8, symSize: 0x3C }
  - { offsetInCU: 0x1D467, offset: 0x1D467, size: 0x8, addend: 0x0, symName: __ZNSt3__117__compressed_pairIPPNS_16__hash_node_baseIPNS_11__hash_nodeINS_17__hash_value_typeIiNS_12basic_stringIcNS_11char_traitsIcEENS_9allocatorIcEEEEEEPvEEEENS_25__bucket_list_deallocatorINS7_ISF_EEEEEC2B8ue170006INS_16__value_init_tagESM_EEOT_OT0_, symObjAddr: 0x34C0, symBinAddr: 0x100003B14, symSize: 0x40 }
  - { offsetInCU: 0x1D4BF, offset: 0x1D4BF, size: 0x8, addend: 0x0, symName: __ZNSt3__122__compressed_pair_elemIPPNS_16__hash_node_baseIPNS_11__hash_nodeINS_17__hash_value_typeIiNS_12basic_stringIcNS_11char_traitsIcEENS_9allocatorIcEEEEEEPvEEEELi0ELb0EEC2B8ue170006ENS_16__value_init_tagE, symObjAddr: 0x3500, symBinAddr: 0x100003B54, symSize: 0x18 }
  - { offsetInCU: 0x1D4F3, offset: 0x1D4F3, size: 0x8, addend: 0x0, symName: __ZNSt3__122__compressed_pair_elemINS_25__bucket_list_deallocatorINS_9allocatorIPNS_16__hash_node_baseIPNS_11__hash_nodeINS_17__hash_value_typeIiNS_12basic_stringIcNS_11char_traitsIcEENS2_IcEEEEEEPvEEEEEEEELi1ELb0EEC2B8ue170006ENS_16__value_init_tagE, symObjAddr: 0x3518, symBinAddr: 0x100003B6C, symSize: 0x2C }
  - { offsetInCU: 0x1D527, offset: 0x1D527, size: 0x8, addend: 0x0, symName: __ZNSt3__125__bucket_list_deallocatorINS_9allocatorIPNS_16__hash_node_baseIPNS_11__hash_nodeINS_17__hash_value_typeIiNS_12basic_stringIcNS_11char_traitsIcEENS1_IcEEEEEEPvEEEEEEEC1B8ue170006Ev, symObjAddr: 0x3544, symBinAddr: 0x100003B98, symSize: 0x2C }
  - { offsetInCU: 0x1D551, offset: 0x1D551, size: 0x8, addend: 0x0, symName: __ZNSt3__125__bucket_list_deallocatorINS_9allocatorIPNS_16__hash_node_baseIPNS_11__hash_nodeINS_17__hash_value_typeIiNS_12basic_stringIcNS_11char_traitsIcEENS1_IcEEEEEEPvEEEEEEEC2B8ue170006Ev, symObjAddr: 0x3570, symBinAddr: 0x100003BC4, symSize: 0x38 }
  - { offsetInCU: 0x1D57B, offset: 0x1D57B, size: 0x8, addend: 0x0, symName: __ZNSt3__117__compressed_pairImNS_9allocatorIPNS_16__hash_node_baseIPNS_11__hash_nodeINS_17__hash_value_typeIiNS_12basic_stringIcNS_11char_traitsIcEENS1_IcEEEEEEPvEEEEEEEC1B8ue170006IiNS_18__default_init_tagEEEOT_OT0_, symObjAddr: 0x35A8, symBinAddr: 0x100003BFC, symSize: 0x3C }
  - { offsetInCU: 0x1D5D3, offset: 0x1D5D3, size: 0x8, addend: 0x0, symName: __ZNSt3__117__compressed_pairImNS_9allocatorIPNS_16__hash_node_baseIPNS_11__hash_nodeINS_17__hash_value_typeIiNS_12basic_stringIcNS_11char_traitsIcEENS1_IcEEEEEEPvEEEEEEEC2B8ue170006IiNS_18__default_init_tagEEEOT_OT0_, symObjAddr: 0x35E4, symBinAddr: 0x100003C38, symSize: 0x40 }
  - { offsetInCU: 0x1D62B, offset: 0x1D62B, size: 0x8, addend: 0x0, symName: __ZNSt3__122__compressed_pair_elemImLi0ELb0EEC2B8ue170006IivEEOT_, symObjAddr: 0x3624, symBinAddr: 0x100003C78, symSize: 0x24 }
  - { offsetInCU: 0x1D66D, offset: 0x1D66D, size: 0x8, addend: 0x0, symName: __ZNSt3__122__compressed_pair_elemINS_9allocatorIPNS_16__hash_node_baseIPNS_11__hash_nodeINS_17__hash_value_typeIiNS_12basic_stringIcNS_11char_traitsIcEENS1_IcEEEEEEPvEEEEEELi1ELb1EEC2B8ue170006ENS_18__default_init_tagE, symObjAddr: 0x3648, symBinAddr: 0x100003C9C, symSize: 0x2C }
  - { offsetInCU: 0x1D6A1, offset: 0x1D6A1, size: 0x8, addend: 0x0, symName: __ZNSt3__19allocatorIPNS_16__hash_node_baseIPNS_11__hash_nodeINS_17__hash_value_typeIiNS_12basic_stringIcNS_11char_traitsIcEENS0_IcEEEEEEPvEEEEEC2B8ue170006Ev, symObjAddr: 0x3674, symBinAddr: 0x100003CC8, symSize: 0x2C }
  - { offsetInCU: 0x1D6CB, offset: 0x1D6CB, size: 0x8, addend: 0x0, symName: __ZNSt3__116__non_trivial_ifILb1ENS_9allocatorIPNS_16__hash_node_baseIPNS_11__hash_nodeINS_17__hash_value_typeIiNS_12basic_stringIcNS_11char_traitsIcEENS1_IcEEEEEEPvEEEEEEEC2B8ue170006Ev, symObjAddr: 0x36A0, symBinAddr: 0x100003CF4, symSize: 0x14 }
  - { offsetInCU: 0x1D6F5, offset: 0x1D6F5, size: 0x8, addend: 0x0, symName: __ZNSt3__117__compressed_pairINS_16__hash_node_baseIPNS_11__hash_nodeINS_17__hash_value_typeIiNS_12basic_stringIcNS_11char_traitsIcEENS_9allocatorIcEEEEEEPvEEEENS7_ISC_EEEC2B8ue170006ILb1EvEEv, symObjAddr: 0x36B4, symBinAddr: 0x100003D08, symSize: 0x34 }
  - { offsetInCU: 0x1D72A, offset: 0x1D72A, size: 0x8, addend: 0x0, symName: __ZNSt3__122__compressed_pair_elemINS_16__hash_node_baseIPNS_11__hash_nodeINS_17__hash_value_typeIiNS_12basic_stringIcNS_11char_traitsIcEENS_9allocatorIcEEEEEEPvEEEELi0ELb0EEC2B8ue170006ENS_16__value_init_tagE, symObjAddr: 0x36E8, symBinAddr: 0x100003D3C, symSize: 0x2C }
  - { offsetInCU: 0x1D75E, offset: 0x1D75E, size: 0x8, addend: 0x0, symName: __ZNSt3__122__compressed_pair_elemINS_9allocatorINS_11__hash_nodeINS_17__hash_value_typeIiNS_12basic_stringIcNS_11char_traitsIcEENS1_IcEEEEEEPvEEEELi1ELb1EEC2B8ue170006ENS_16__value_init_tagE, symObjAddr: 0x3714, symBinAddr: 0x100003D68, symSize: 0x2C }
  - { offsetInCU: 0x1D792, offset: 0x1D792, size: 0x8, addend: 0x0, symName: __ZNSt3__116__hash_node_baseIPNS_11__hash_nodeINS_17__hash_value_typeIiNS_12basic_stringIcNS_11char_traitsIcEENS_9allocatorIcEEEEEEPvEEEC1B8ue170006Ev, symObjAddr: 0x3740, symBinAddr: 0x100003D94, symSize: 0x2C }
  - { offsetInCU: 0x1D7BC, offset: 0x1D7BC, size: 0x8, addend: 0x0, symName: __ZNSt3__116__hash_node_baseIPNS_11__hash_nodeINS_17__hash_value_typeIiNS_12basic_stringIcNS_11char_traitsIcEENS_9allocatorIcEEEEEEPvEEEC2B8ue170006Ev, symObjAddr: 0x376C, symBinAddr: 0x100003DC0, symSize: 0x18 }
  - { offsetInCU: 0x1D7E6, offset: 0x1D7E6, size: 0x8, addend: 0x0, symName: __ZNSt3__19allocatorINS_11__hash_nodeINS_17__hash_value_typeIiNS_12basic_stringIcNS_11char_traitsIcEENS0_IcEEEEEEPvEEEC2B8ue170006Ev, symObjAddr: 0x3784, symBinAddr: 0x100003DD8, symSize: 0x2C }
  - { offsetInCU: 0x1D810, offset: 0x1D810, size: 0x8, addend: 0x0, symName: __ZNSt3__116__non_trivial_ifILb1ENS_9allocatorINS_11__hash_nodeINS_17__hash_value_typeIiNS_12basic_stringIcNS_11char_traitsIcEENS1_IcEEEEEEPvEEEEEC2B8ue170006Ev, symObjAddr: 0x37B0, symBinAddr: 0x100003E04, symSize: 0x14 }
  - { offsetInCU: 0x1D83A, offset: 0x1D83A, size: 0x8, addend: 0x0, symName: __ZNSt3__117__compressed_pairImNS_22__unordered_map_hasherIiNS_17__hash_value_typeIiNS_12basic_stringIcNS_11char_traitsIcEENS_9allocatorIcEEEEEENS_4hashIiEENS_8equal_toIiEELb1EEEEC2B8ue170006IiNS_18__default_init_tagEEEOT_OT0_, symObjAddr: 0x37C4, symBinAddr: 0x100003E18, symSize: 0x40 }
  - { offsetInCU: 0x1D892, offset: 0x1D892, size: 0x8, addend: 0x0, symName: __ZNSt3__122__compressed_pair_elemINS_22__unordered_map_hasherIiNS_17__hash_value_typeIiNS_12basic_stringIcNS_11char_traitsIcEENS_9allocatorIcEEEEEENS_4hashIiEENS_8equal_toIiEELb1EEELi1ELb1EEC2B8ue170006ENS_18__default_init_tagE, symObjAddr: 0x3804, symBinAddr: 0x100003E58, symSize: 0x2C }
  - { offsetInCU: 0x1D8C6, offset: 0x1D8C6, size: 0x8, addend: 0x0, symName: __ZNSt3__122__unordered_map_hasherIiNS_17__hash_value_typeIiNS_12basic_stringIcNS_11char_traitsIcEENS_9allocatorIcEEEEEENS_4hashIiEENS_8equal_toIiEELb1EEC2B8ue170006Ev, symObjAddr: 0x3830, symBinAddr: 0x100003E84, symSize: 0x14 }
  - { offsetInCU: 0x1D8F0, offset: 0x1D8F0, size: 0x8, addend: 0x0, symName: __ZNSt3__117__compressed_pairIfNS_21__unordered_map_equalIiNS_17__hash_value_typeIiNS_12basic_stringIcNS_11char_traitsIcEENS_9allocatorIcEEEEEENS_8equal_toIiEENS_4hashIiEELb1EEEEC2B8ue170006IfNS_18__default_init_tagEEEOT_OT0_, symObjAddr: 0x3844, symBinAddr: 0x100003E98, symSize: 0x40 }
  - { offsetInCU: 0x1D948, offset: 0x1D948, size: 0x8, addend: 0x0, symName: __ZNSt3__122__compressed_pair_elemIfLi0ELb0EEC2B8ue170006IfvEEOT_, symObjAddr: 0x3884, symBinAddr: 0x100003ED8, symSize: 0x24 }
  - { offsetInCU: 0x1D98A, offset: 0x1D98A, size: 0x8, addend: 0x0, symName: __ZNSt3__122__compressed_pair_elemINS_21__unordered_map_equalIiNS_17__hash_value_typeIiNS_12basic_stringIcNS_11char_traitsIcEENS_9allocatorIcEEEEEENS_8equal_toIiEENS_4hashIiEELb1EEELi1ELb1EEC2B8ue170006ENS_18__default_init_tagE, symObjAddr: 0x38A8, symBinAddr: 0x100003EFC, symSize: 0x2C }
  - { offsetInCU: 0x1D9BE, offset: 0x1D9BE, size: 0x8, addend: 0x0, symName: __ZNSt3__121__unordered_map_equalIiNS_17__hash_value_typeIiNS_12basic_stringIcNS_11char_traitsIcEENS_9allocatorIcEEEEEENS_8equal_toIiEENS_4hashIiEELb1EEC2B8ue170006Ev, symObjAddr: 0x38D4, symBinAddr: 0x100003F28, symSize: 0x14 }
  - { offsetInCU: 0x1D9E8, offset: 0x1D9E8, size: 0x8, addend: 0x0, symName: __ZNSt3__110unique_ptrIA_PNS_16__hash_node_baseIPNS_11__hash_nodeINS_17__hash_value_typeIiNS_12basic_stringIcNS_11char_traitsIcEENS_9allocatorIcEEEEEEPvEEEENS_25__bucket_list_deallocatorINS7_ISF_EEEEED2B8ue170006Ev, symObjAddr: 0x38E8, symBinAddr: 0x100003F3C, symSize: 0x30 }
  - { offsetInCU: 0x1DA12, offset: 0x1DA12, size: 0x8, addend: 0x0, symName: __ZNSt3__110unique_ptrIA_PNS_16__hash_node_baseIPNS_11__hash_nodeINS_17__hash_value_typeIiNS_12basic_stringIcNS_11char_traitsIcEENS_9allocatorIcEEEEEEPvEEEENS_25__bucket_list_deallocatorINS7_ISF_EEEEE5resetB8ue170006EDn, symObjAddr: 0x3918, symBinAddr: 0x100003F6C, symSize: 0x6C }
  - { offsetInCU: 0x1DA53, offset: 0x1DA53, size: 0x8, addend: 0x0, symName: __ZNSt3__117__compressed_pairIPPNS_16__hash_node_baseIPNS_11__hash_nodeINS_17__hash_value_typeIiNS_12basic_stringIcNS_11char_traitsIcEENS_9allocatorIcEEEEEEPvEEEENS_25__bucket_list_deallocatorINS7_ISF_EEEEE5firstB8ue170006Ev, symObjAddr: 0x3984, symBinAddr: 0x100003FD8, symSize: 0x24 }
  - { offsetInCU: 0x1DA79, offset: 0x1DA79, size: 0x8, addend: 0x0, symName: __ZNSt3__117__compressed_pairIPPNS_16__hash_node_baseIPNS_11__hash_nodeINS_17__hash_value_typeIiNS_12basic_stringIcNS_11char_traitsIcEENS_9allocatorIcEEEEEEPvEEEENS_25__bucket_list_deallocatorINS7_ISF_EEEEE6secondB8ue170006Ev, symObjAddr: 0x39A8, symBinAddr: 0x100003FFC, symSize: 0x28 }
  - { offsetInCU: 0x1DA9F, offset: 0x1DA9F, size: 0x8, addend: 0x0, symName: __ZNSt3__125__bucket_list_deallocatorINS_9allocatorIPNS_16__hash_node_baseIPNS_11__hash_nodeINS_17__hash_value_typeIiNS_12basic_stringIcNS_11char_traitsIcEENS1_IcEEEEEEPvEEEEEEEclB8ue170006EPSF_, symObjAddr: 0x39D0, symBinAddr: 0x100004024, symSize: 0x58 }
  - { offsetInCU: 0x1DAD4, offset: 0x1DAD4, size: 0x8, addend: 0x0, symName: __ZNSt3__122__compressed_pair_elemIPPNS_16__hash_node_baseIPNS_11__hash_nodeINS_17__hash_value_typeIiNS_12basic_stringIcNS_11char_traitsIcEENS_9allocatorIcEEEEEEPvEEEELi0ELb0EE5__getB8ue170006Ev, symObjAddr: 0x3A28, symBinAddr: 0x10000407C, symSize: 0x14 }
  - { offsetInCU: 0x1DAFA, offset: 0x1DAFA, size: 0x8, addend: 0x0, symName: __ZNSt3__122__compressed_pair_elemINS_25__bucket_list_deallocatorINS_9allocatorIPNS_16__hash_node_baseIPNS_11__hash_nodeINS_17__hash_value_typeIiNS_12basic_stringIcNS_11char_traitsIcEENS2_IcEEEEEEPvEEEEEEEELi1ELb0EE5__getB8ue170006Ev, symObjAddr: 0x3A3C, symBinAddr: 0x100004090, symSize: 0x14 }
  - { offsetInCU: 0x1DB20, offset: 0x1DB20, size: 0x8, addend: 0x0, symName: __ZNSt3__116allocator_traitsINS_9allocatorIPNS_16__hash_node_baseIPNS_11__hash_nodeINS_17__hash_value_typeIiNS_12basic_stringIcNS_11char_traitsIcEENS1_IcEEEEEEPvEEEEEEE10deallocateB8ue170006ERSG_PSF_m, symObjAddr: 0x3A50, symBinAddr: 0x1000040A4, symSize: 0x34 }
  - { offsetInCU: 0x1DB62, offset: 0x1DB62, size: 0x8, addend: 0x0, symName: __ZNSt3__125__bucket_list_deallocatorINS_9allocatorIPNS_16__hash_node_baseIPNS_11__hash_nodeINS_17__hash_value_typeIiNS_12basic_stringIcNS_11char_traitsIcEENS1_IcEEEEEEPvEEEEEEE7__allocB8ue170006Ev, symObjAddr: 0x3A84, symBinAddr: 0x1000040D8, symSize: 0x24 }
  - { offsetInCU: 0x1DB88, offset: 0x1DB88, size: 0x8, addend: 0x0, symName: __ZNSt3__125__bucket_list_deallocatorINS_9allocatorIPNS_16__hash_node_baseIPNS_11__hash_nodeINS_17__hash_value_typeIiNS_12basic_stringIcNS_11char_traitsIcEENS1_IcEEEEEEPvEEEEEEE4sizeB8ue170006Ev, symObjAddr: 0x3AA8, symBinAddr: 0x1000040FC, symSize: 0x24 }
  - { offsetInCU: 0x1DBAE, offset: 0x1DBAE, size: 0x8, addend: 0x0, symName: __ZNSt3__19allocatorIPNS_16__hash_node_baseIPNS_11__hash_nodeINS_17__hash_value_typeIiNS_12basic_stringIcNS_11char_traitsIcEENS0_IcEEEEEEPvEEEEE10deallocateB8ue170006EPSE_m, symObjAddr: 0x3ACC, symBinAddr: 0x100004120, symSize: 0x70 }
  - { offsetInCU: 0x1DBF0, offset: 0x1DBF0, size: 0x8, addend: 0x0, symName: __ZNSt3__117__compressed_pairImNS_9allocatorIPNS_16__hash_node_baseIPNS_11__hash_nodeINS_17__hash_value_typeIiNS_12basic_stringIcNS_11char_traitsIcEENS1_IcEEEEEEPvEEEEEEE6secondB8ue170006Ev, symObjAddr: 0x3BB8, symBinAddr: 0x10000420C, symSize: 0x24 }
  - { offsetInCU: 0x1DC16, offset: 0x1DC16, size: 0x8, addend: 0x0, symName: __ZNSt3__122__compressed_pair_elemINS_9allocatorIPNS_16__hash_node_baseIPNS_11__hash_nodeINS_17__hash_value_typeIiNS_12basic_stringIcNS_11char_traitsIcEENS1_IcEEEEEEPvEEEEEELi1ELb1EE5__getB8ue170006Ev, symObjAddr: 0x3BDC, symBinAddr: 0x100004230, symSize: 0x14 }
  - { offsetInCU: 0x1DC3C, offset: 0x1DC3C, size: 0x8, addend: 0x0, symName: __ZNSt3__117__compressed_pairImNS_9allocatorIPNS_16__hash_node_baseIPNS_11__hash_nodeINS_17__hash_value_typeIiNS_12basic_stringIcNS_11char_traitsIcEENS1_IcEEEEEEPvEEEEEEE5firstB8ue170006Ev, symObjAddr: 0x3BF0, symBinAddr: 0x100004244, symSize: 0x24 }
  - { offsetInCU: 0x1DC62, offset: 0x1DC62, size: 0x8, addend: 0x0, symName: __ZNSt3__122__compressed_pair_elemImLi0ELb0EE5__getB8ue170006Ev, symObjAddr: 0x3C14, symBinAddr: 0x100004268, symSize: 0x14 }
  - { offsetInCU: 0x1DC88, offset: 0x1DC88, size: 0x8, addend: 0x0, symName: __ZNSt3__13mapINS_12basic_stringIcNS_11char_traitsIcEENS_9allocatorIcEEEE14LocationConfigNS_4lessIS6_EENS4_INS_4pairIKS6_S7_EEEEEC2B8ue170006Ev, symObjAddr: 0x3C28, symBinAddr: 0x10000427C, symSize: 0x40 }
  - { offsetInCU: 0x1DCB2, offset: 0x1DCB2, size: 0x8, addend: 0x0, symName: __ZNSt3__119__map_value_compareINS_12basic_stringIcNS_11char_traitsIcEENS_9allocatorIcEEEENS_12__value_typeIS6_14LocationConfigEENS_4lessIS6_EELb1EEC1B8ue170006ESB_, symObjAddr: 0x3C68, symBinAddr: 0x1000042BC, symSize: 0x2C }
  - { offsetInCU: 0x1DCEB, offset: 0x1DCEB, size: 0x8, addend: 0x0, symName: __ZNSt3__16__treeINS_12__value_typeINS_12basic_stringIcNS_11char_traitsIcEENS_9allocatorIcEEEE14LocationConfigEENS_19__map_value_compareIS7_S9_NS_4lessIS7_EELb1EEENS5_IS9_EEEC1ERKSD_, symObjAddr: 0x3C94, symBinAddr: 0x1000042E8, symSize: 0x34 }
  - { offsetInCU: 0x1DD26, offset: 0x1DD26, size: 0x8, addend: 0x0, symName: __ZNSt3__119__map_value_compareINS_12basic_stringIcNS_11char_traitsIcEENS_9allocatorIcEEEENS_12__value_typeIS6_14LocationConfigEENS_4lessIS6_EELb1EEC2B8ue170006ESB_, symObjAddr: 0x3CC8, symBinAddr: 0x10000431C, symSize: 0x14 }
  - { offsetInCU: 0x1DD5F, offset: 0x1DD5F, size: 0x8, addend: 0x0, symName: __ZNSt3__16__treeINS_12__value_typeINS_12basic_stringIcNS_11char_traitsIcEENS_9allocatorIcEEEE14LocationConfigEENS_19__map_value_compareIS7_S9_NS_4lessIS7_EELb1EEENS5_IS9_EEEC2ERKSD_, symObjAddr: 0x3CDC, symBinAddr: 0x100004330, symSize: 0x70 }
  - { offsetInCU: 0x1DD9A, offset: 0x1DD9A, size: 0x8, addend: 0x0, symName: __ZNSt3__117__compressed_pairINS_15__tree_end_nodeIPNS_16__tree_node_baseIPvEEEENS_9allocatorINS_11__tree_nodeINS_12__value_typeINS_12basic_stringIcNS_11char_traitsIcEENS7_IcEEEE14LocationConfigEES3_EEEEEC1B8ue170006ILb1EvEEv, symObjAddr: 0x3D4C, symBinAddr: 0x1000043A0, symSize: 0x2C }
  - { offsetInCU: 0x1DDCF, offset: 0x1DDCF, size: 0x8, addend: 0x0, symName: __ZNSt3__117__compressed_pairImNS_19__map_value_compareINS_12basic_stringIcNS_11char_traitsIcEENS_9allocatorIcEEEENS_12__value_typeIS7_14LocationConfigEENS_4lessIS7_EELb1EEEEC1B8ue170006IiRKSD_EEOT_OT0_, symObjAddr: 0x3D78, symBinAddr: 0x1000043CC, symSize: 0x3C }
  - { offsetInCU: 0x1DE27, offset: 0x1DE27, size: 0x8, addend: 0x0, symName: __ZNSt3__16__treeINS_12__value_typeINS_12basic_stringIcNS_11char_traitsIcEENS_9allocatorIcEEEE14LocationConfigEENS_19__map_value_compareIS7_S9_NS_4lessIS7_EELb1EEENS5_IS9_EEE10__end_nodeB8ue170006Ev, symObjAddr: 0x3DB4, symBinAddr: 0x100004408, symSize: 0x2C }
  - { offsetInCU: 0x1DE4D, offset: 0x1DE4D, size: 0x8, addend: 0x0, symName: __ZNSt3__16__treeINS_12__value_typeINS_12basic_stringIcNS_11char_traitsIcEENS_9allocatorIcEEEE14LocationConfigEENS_19__map_value_compareIS7_S9_NS_4lessIS7_EELb1EEENS5_IS9_EEE12__begin_nodeB8ue170006Ev, symObjAddr: 0x3DE0, symBinAddr: 0x100004434, symSize: 0x14 }
  - { offsetInCU: 0x1DE73, offset: 0x1DE73, size: 0x8, addend: 0x0, symName: __ZNSt3__117__compressed_pairINS_15__tree_end_nodeIPNS_16__tree_node_baseIPvEEEENS_9allocatorINS_11__tree_nodeINS_12__value_typeINS_12basic_stringIcNS_11char_traitsIcEENS7_IcEEEE14LocationConfigEES3_EEEEEC2B8ue170006ILb1EvEEv, symObjAddr: 0x3DF4, symBinAddr: 0x100004448, symSize: 0x34 }
  - { offsetInCU: 0x1DEA8, offset: 0x1DEA8, size: 0x8, addend: 0x0, symName: __ZNSt3__122__compressed_pair_elemINS_15__tree_end_nodeIPNS_16__tree_node_baseIPvEEEELi0ELb0EEC2B8ue170006ENS_16__value_init_tagE, symObjAddr: 0x3E28, symBinAddr: 0x10000447C, symSize: 0x2C }
  - { offsetInCU: 0x1DEDC, offset: 0x1DEDC, size: 0x8, addend: 0x0, symName: __ZNSt3__122__compressed_pair_elemINS_9allocatorINS_11__tree_nodeINS_12__value_typeINS_12basic_stringIcNS_11char_traitsIcEENS1_IcEEEE14LocationConfigEEPvEEEELi1ELb1EEC2B8ue170006ENS_16__value_init_tagE, symObjAddr: 0x3E54, symBinAddr: 0x1000044A8, symSize: 0x2C }
  - { offsetInCU: 0x1DF10, offset: 0x1DF10, size: 0x8, addend: 0x0, symName: __ZNSt3__115__tree_end_nodeIPNS_16__tree_node_baseIPvEEEC1B8ue170006Ev, symObjAddr: 0x3E80, symBinAddr: 0x1000044D4, symSize: 0x2C }
  - { offsetInCU: 0x1DF3A, offset: 0x1DF3A, size: 0x8, addend: 0x0, symName: __ZNSt3__115__tree_end_nodeIPNS_16__tree_node_baseIPvEEEC2B8ue170006Ev, symObjAddr: 0x3EAC, symBinAddr: 0x100004500, symSize: 0x18 }
  - { offsetInCU: 0x1DF64, offset: 0x1DF64, size: 0x8, addend: 0x0, symName: __ZNSt3__19allocatorINS_11__tree_nodeINS_12__value_typeINS_12basic_stringIcNS_11char_traitsIcEENS0_IcEEEE14LocationConfigEEPvEEEC2B8ue170006Ev, symObjAddr: 0x3EC4, symBinAddr: 0x100004518, symSize: 0x2C }
  - { offsetInCU: 0x1DF8E, offset: 0x1DF8E, size: 0x8, addend: 0x0, symName: __ZNSt3__116__non_trivial_ifILb1ENS_9allocatorINS_11__tree_nodeINS_12__value_typeINS_12basic_stringIcNS_11char_traitsIcEENS1_IcEEEE14LocationConfigEEPvEEEEEC2B8ue170006Ev, symObjAddr: 0x3EF0, symBinAddr: 0x100004544, symSize: 0x14 }
  - { offsetInCU: 0x1DFB8, offset: 0x1DFB8, size: 0x8, addend: 0x0, symName: __ZNSt3__117__compressed_pairImNS_19__map_value_compareINS_12basic_stringIcNS_11char_traitsIcEENS_9allocatorIcEEEENS_12__value_typeIS7_14LocationConfigEENS_4lessIS7_EELb1EEEEC2B8ue170006IiRKSD_EEOT_OT0_, symObjAddr: 0x3F04, symBinAddr: 0x100004558, symSize: 0x44 }
  - { offsetInCU: 0x1E010, offset: 0x1E010, size: 0x8, addend: 0x0, symName: __ZNSt3__122__compressed_pair_elemINS_19__map_value_compareINS_12basic_stringIcNS_11char_traitsIcEENS_9allocatorIcEEEENS_12__value_typeIS7_14LocationConfigEENS_4lessIS7_EELb1EEELi1ELb1EEC2B8ue170006IRKSD_vEEOT_, symObjAddr: 0x3F48, symBinAddr: 0x10000459C, symSize: 0x18 }
  - { offsetInCU: 0x1E052, offset: 0x1E052, size: 0x8, addend: 0x0, symName: __ZNSt3__114pointer_traitsIPNS_15__tree_end_nodeIPNS_16__tree_node_baseIPvEEEEE10pointer_toB8ue170006ERS6_, symObjAddr: 0x3F60, symBinAddr: 0x1000045B4, symSize: 0x14 }
  - { offsetInCU: 0x1E075, offset: 0x1E075, size: 0x8, addend: 0x0, symName: __ZNSt3__117__compressed_pairINS_15__tree_end_nodeIPNS_16__tree_node_baseIPvEEEENS_9allocatorINS_11__tree_nodeINS_12__value_typeINS_12basic_stringIcNS_11char_traitsIcEENS7_IcEEEE14LocationConfigEES3_EEEEE5firstB8ue170006Ev, symObjAddr: 0x3F74, symBinAddr: 0x1000045C8, symSize: 0x24 }
  - { offsetInCU: 0x1E09B, offset: 0x1E09B, size: 0x8, addend: 0x0, symName: __ZNSt3__122__compressed_pair_elemINS_15__tree_end_nodeIPNS_16__tree_node_baseIPvEEEELi0ELb0EE5__getB8ue170006Ev, symObjAddr: 0x3F98, symBinAddr: 0x1000045EC, symSize: 0x14 }
  - { offsetInCU: 0x1E0C1, offset: 0x1E0C1, size: 0x8, addend: 0x0, symName: __ZNSt3__113unordered_mapIiNS_12basic_stringIcNS_11char_traitsIcEENS_9allocatorIcEEEENS_4hashIiEENS_8equal_toIiEENS4_INS_4pairIKiS6_EEEEED2B8ue170006Ev, symObjAddr: 0x3FAC, symBinAddr: 0x100004600, symSize: 0x2C }
  - { offsetInCU: 0x1E0EB, offset: 0x1E0EB, size: 0x8, addend: 0x0, symName: __ZNSt3__112__hash_tableINS_17__hash_value_typeIiNS_12basic_stringIcNS_11char_traitsIcEENS_9allocatorIcEEEEEENS_22__unordered_map_hasherIiS8_NS_4hashIiEENS_8equal_toIiEELb1EEENS_21__unordered_map_equalIiS8_SD_SB_Lb1EEENS5_IS8_EEED1Ev, symObjAddr: 0x3FD8, symBinAddr: 0x10000462C, symSize: 0x2C }
  - { offsetInCU: 0x1E117, offset: 0x1E117, size: 0x8, addend: 0x0, symName: __ZNSt3__112__hash_tableINS_17__hash_value_typeIiNS_12basic_stringIcNS_11char_traitsIcEENS_9allocatorIcEEEEEENS_22__unordered_map_hasherIiS8_NS_4hashIiEENS_8equal_toIiEELb1EEENS_21__unordered_map_equalIiS8_SD_SB_Lb1EEENS5_IS8_EEED2Ev, symObjAddr: 0x4004, symBinAddr: 0x100004658, symSize: 0x48 }
  - { offsetInCU: 0x1E143, offset: 0x1E143, size: 0x8, addend: 0x0, symName: __ZNSt3__112__hash_tableINS_17__hash_value_typeIiNS_12basic_stringIcNS_11char_traitsIcEENS_9allocatorIcEEEEEENS_22__unordered_map_hasherIiS8_NS_4hashIiEENS_8equal_toIiEELb1EEENS_21__unordered_map_equalIiS8_SD_SB_Lb1EEENS5_IS8_EEE17__deallocate_nodeEPNS_16__hash_node_baseIPNS_11__hash_nodeIS8_PvEEEE, symObjAddr: 0x404C, symBinAddr: 0x1000046A0, symSize: 0xBC }
  - { offsetInCU: 0x1E1AD, offset: 0x1E1AD, size: 0x8, addend: 0x0, symName: __ZNSt3__117__compressed_pairINS_16__hash_node_baseIPNS_11__hash_nodeINS_17__hash_value_typeIiNS_12basic_stringIcNS_11char_traitsIcEENS_9allocatorIcEEEEEEPvEEEENS7_ISC_EEE5firstB8ue170006Ev, symObjAddr: 0x4108, symBinAddr: 0x10000475C, symSize: 0x24 }
  - { offsetInCU: 0x1E1D3, offset: 0x1E1D3, size: 0x8, addend: 0x0, symName: __ZNSt3__112__hash_tableINS_17__hash_value_typeIiNS_12basic_stringIcNS_11char_traitsIcEENS_9allocatorIcEEEEEENS_22__unordered_map_hasherIiS8_NS_4hashIiEENS_8equal_toIiEELb1EEENS_21__unordered_map_equalIiS8_SD_SB_Lb1EEENS5_IS8_EEE12__node_allocB8ue170006Ev, symObjAddr: 0x412C, symBinAddr: 0x100004780, symSize: 0x28 }
  - { offsetInCU: 0x1E1F9, offset: 0x1E1F9, size: 0x8, addend: 0x0, symName: __ZNSt3__116__hash_node_baseIPNS_11__hash_nodeINS_17__hash_value_typeIiNS_12basic_stringIcNS_11char_traitsIcEENS_9allocatorIcEEEEEEPvEEE8__upcastB8ue170006Ev, symObjAddr: 0x4154, symBinAddr: 0x1000047A8, symSize: 0x24 }
  - { offsetInCU: 0x1E21F, offset: 0x1E21F, size: 0x8, addend: 0x0, symName: __ZNSt3__116allocator_traitsINS_9allocatorINS_11__hash_nodeINS_17__hash_value_typeIiNS_12basic_stringIcNS_11char_traitsIcEENS1_IcEEEEEEPvEEEEE7destroyB8ue170006INS_4pairIKiS8_EEvvEEvRSC_PT_, symObjAddr: 0x4178, symBinAddr: 0x1000047CC, symSize: 0x28 }
  - { offsetInCU: 0x1E25A, offset: 0x1E25A, size: 0x8, addend: 0x0, symName: __ZNSt3__122__hash_key_value_typesINS_17__hash_value_typeIiNS_12basic_stringIcNS_11char_traitsIcEENS_9allocatorIcEEEEEEE9__get_ptrB8ue170006ERS8_, symObjAddr: 0x41A0, symBinAddr: 0x1000047F4, symSize: 0x24 }
  - { offsetInCU: 0x1E27D, offset: 0x1E27D, size: 0x8, addend: 0x0, symName: __ZNSt3__116allocator_traitsINS_9allocatorINS_11__hash_nodeINS_17__hash_value_typeIiNS_12basic_stringIcNS_11char_traitsIcEENS1_IcEEEEEEPvEEEEE10deallocateB8ue170006ERSC_PSB_m, symObjAddr: 0x41C4, symBinAddr: 0x100004818, symSize: 0x34 }
  - { offsetInCU: 0x1E2BF, offset: 0x1E2BF, size: 0x8, addend: 0x0, symName: __ZNSt3__117__compressed_pairINS_16__hash_node_baseIPNS_11__hash_nodeINS_17__hash_value_typeIiNS_12basic_stringIcNS_11char_traitsIcEENS_9allocatorIcEEEEEEPvEEEENS7_ISC_EEE6secondB8ue170006Ev, symObjAddr: 0x41F8, symBinAddr: 0x10000484C, symSize: 0x24 }
  - { offsetInCU: 0x1E2E5, offset: 0x1E2E5, size: 0x8, addend: 0x0, symName: __ZNSt3__122__compressed_pair_elemINS_9allocatorINS_11__hash_nodeINS_17__hash_value_typeIiNS_12basic_stringIcNS_11char_traitsIcEENS1_IcEEEEEEPvEEEELi1ELb1EE5__getB8ue170006Ev, symObjAddr: 0x421C, symBinAddr: 0x100004870, symSize: 0x14 }
  - { offsetInCU: 0x1E30B, offset: 0x1E30B, size: 0x8, addend: 0x0, symName: __ZNSt3__114pointer_traitsIPNS_16__hash_node_baseIPNS_11__hash_nodeINS_17__hash_value_typeIiNS_12basic_stringIcNS_11char_traitsIcEENS_9allocatorIcEEEEEEPvEEEEE10pointer_toB8ue170006ERSE_, symObjAddr: 0x4230, symBinAddr: 0x100004884, symSize: 0x14 }
  - { offsetInCU: 0x1E32E, offset: 0x1E32E, size: 0x8, addend: 0x0, symName: __ZNSt3__14pairIKiNS_12basic_stringIcNS_11char_traitsIcEENS_9allocatorIcEEEEED1Ev, symObjAddr: 0x4244, symBinAddr: 0x100004898, symSize: 0x2C }
  - { offsetInCU: 0x1E35A, offset: 0x1E35A, size: 0x8, addend: 0x0, symName: __ZNSt3__14pairIKiNS_12basic_stringIcNS_11char_traitsIcEENS_9allocatorIcEEEEED2Ev, symObjAddr: 0x4270, symBinAddr: 0x1000048C4, symSize: 0x30 }
  - { offsetInCU: 0x1E386, offset: 0x1E386, size: 0x8, addend: 0x0, symName: __ZNSt3__117__hash_value_typeIiNS_12basic_stringIcNS_11char_traitsIcEENS_9allocatorIcEEEEE11__get_valueB8ue170006Ev, symObjAddr: 0x42A0, symBinAddr: 0x1000048F4, symSize: 0x14 }
  - { offsetInCU: 0x1E3AC, offset: 0x1E3AC, size: 0x8, addend: 0x0, symName: __ZNSt3__19allocatorINS_11__hash_nodeINS_17__hash_value_typeIiNS_12basic_stringIcNS_11char_traitsIcEENS0_IcEEEEEEPvEEE10deallocateB8ue170006EPSA_m, symObjAddr: 0x42B4, symBinAddr: 0x100004908, symSize: 0x74 }
  - { offsetInCU: 0x1E3EE, offset: 0x1E3EE, size: 0x8, addend: 0x0, symName: __ZNSt3__122__compressed_pair_elemINS_16__hash_node_baseIPNS_11__hash_nodeINS_17__hash_value_typeIiNS_12basic_stringIcNS_11char_traitsIcEENS_9allocatorIcEEEEEEPvEEEELi0ELb0EE5__getB8ue170006Ev, symObjAddr: 0x4328, symBinAddr: 0x10000497C, symSize: 0x14 }
  - { offsetInCU: 0x1E414, offset: 0x1E414, size: 0x8, addend: 0x0, symName: __ZNSt3__19allocatorIcEC1B8ue170006Ev, symObjAddr: 0x433C, symBinAddr: 0x100004990, symSize: 0x2C }
  - { offsetInCU: 0x1E43E, offset: 0x1E43E, size: 0x8, addend: 0x0, symName: __ZNSt3__113unordered_mapIiNS_12basic_stringIcNS_11char_traitsIcEENS_9allocatorIcEEEENS_4hashIiEENS_8equal_toIiEENS4_INS_4pairIKiS6_EEEEE4findB8ue170006ERSC_, symObjAddr: 0x4368, symBinAddr: 0x1000049BC, symSize: 0x40 }
  - { offsetInCU: 0x1E473, offset: 0x1E473, size: 0x8, addend: 0x0, symName: __ZNSt3__113unordered_mapIiNS_12basic_stringIcNS_11char_traitsIcEENS_9allocatorIcEEEENS_4hashIiEENS_8equal_toIiEENS4_INS_4pairIKiS6_EEEEE3endB8ue170006Ev, symObjAddr: 0x43D8, symBinAddr: 0x100004A2C, symSize: 0x38 }
  - { offsetInCU: 0x1E499, offset: 0x1E499, size: 0x8, addend: 0x0, symName: __ZNKSt3__119__hash_map_iteratorINS_15__hash_iteratorIPNS_11__hash_nodeINS_17__hash_value_typeIiNS_12basic_stringIcNS_11char_traitsIcEENS_9allocatorIcEEEEEEPvEEEEEptB8ue170006Ev, symObjAddr: 0x4410, symBinAddr: 0x100004A64, symSize: 0x2C }
  - { offsetInCU: 0x1E4BF, offset: 0x1E4BF, size: 0x8, addend: 0x0, symName: __ZNSt3__113unordered_mapIiNS_12basic_stringIcNS_11char_traitsIcEENS_9allocatorIcEEEENS_4hashIiEENS_8equal_toIiEENS4_INS_4pairIKiS6_EEEEE25__construct_node_with_keyERSC_, symObjAddr: 0x443C, symBinAddr: 0x100004A90, symSize: 0x144 }
  - { offsetInCU: 0x1E515, offset: 0x1E515, size: 0x8, addend: 0x0, symName: __ZNSt3__112__hash_tableINS_17__hash_value_typeIiNS_12basic_stringIcNS_11char_traitsIcEENS_9allocatorIcEEEEEENS_22__unordered_map_hasherIiS8_NS_4hashIiEENS_8equal_toIiEELb1EEENS_21__unordered_map_equalIiS8_SD_SB_Lb1EEENS5_IS8_EEE20__node_insert_uniqueEPNS_11__hash_nodeIS8_PvEE, symObjAddr: 0x4580, symBinAddr: 0x100004BD4, symSize: 0xC4 }
  - { offsetInCU: 0x1E56A, offset: 0x1E56A, size: 0x8, addend: 0x0, symName: __ZNKSt3__110unique_ptrINS_11__hash_nodeINS_17__hash_value_typeIiNS_12basic_stringIcNS_11char_traitsIcEENS_9allocatorIcEEEEEEPvEENS_26__hash_map_node_destructorINS6_ISB_EEEEE3getB8ue170006Ev, symObjAddr: 0x4644, symBinAddr: 0x100004C98, symSize: 0x28 }
  - { offsetInCU: 0x1E590, offset: 0x1E590, size: 0x8, addend: 0x0, symName: __ZNSt3__14pairINS_19__hash_map_iteratorINS_15__hash_iteratorIPNS_11__hash_nodeINS_17__hash_value_typeIiNS_12basic_stringIcNS_11char_traitsIcEENS_9allocatorIcEEEEEEPvEEEEEEbEC1B8ue170006ISF_bEERKNS0_IT_T0_EE, symObjAddr: 0x466C, symBinAddr: 0x100004CC0, symSize: 0x34 }
  - { offsetInCU: 0x1E5DA, offset: 0x1E5DA, size: 0x8, addend: 0x0, symName: __ZNSt3__110unique_ptrINS_11__hash_nodeINS_17__hash_value_typeIiNS_12basic_stringIcNS_11char_traitsIcEENS_9allocatorIcEEEEEEPvEENS_26__hash_map_node_destructorINS6_ISB_EEEEE7releaseB8ue170006Ev, symObjAddr: 0x46A0, symBinAddr: 0x100004CF4, symSize: 0x44 }
  - { offsetInCU: 0x1E60F, offset: 0x1E60F, size: 0x8, addend: 0x0, symName: __ZNSt3__110unique_ptrINS_11__hash_nodeINS_17__hash_value_typeIiNS_12basic_stringIcNS_11char_traitsIcEENS_9allocatorIcEEEEEEPvEENS_26__hash_map_node_destructorINS6_ISB_EEEEED1B8ue170006Ev, symObjAddr: 0x46E4, symBinAddr: 0x100004D38, symSize: 0x2C }
  - { offsetInCU: 0x1E639, offset: 0x1E639, size: 0x8, addend: 0x0, symName: __ZNSt3__112__hash_tableINS_17__hash_value_typeIiNS_12basic_stringIcNS_11char_traitsIcEENS_9allocatorIcEEEEEENS_22__unordered_map_hasherIiS8_NS_4hashIiEENS_8equal_toIiEELb1EEENS_21__unordered_map_equalIiS8_SD_SB_Lb1EEENS5_IS8_EEE4findIiEENS_15__hash_iteratorIPNS_11__hash_nodeIS8_PvEEEERKT_, symObjAddr: 0x4710, symBinAddr: 0x100004D64, symSize: 0x1B0 }
  - { offsetInCU: 0x1E6C3, offset: 0x1E6C3, size: 0x8, addend: 0x0, symName: __ZNSt3__119__hash_map_iteratorINS_15__hash_iteratorIPNS_11__hash_nodeINS_17__hash_value_typeIiNS_12basic_stringIcNS_11char_traitsIcEENS_9allocatorIcEEEEEEPvEEEEEC1B8ue170006ESE_, symObjAddr: 0x48C0, symBinAddr: 0x100004F14, symSize: 0x34 }
  - { offsetInCU: 0x1E6FC, offset: 0x1E6FC, size: 0x8, addend: 0x0, symName: __ZNSt3__112__hash_tableINS_17__hash_value_typeIiNS_12basic_stringIcNS_11char_traitsIcEENS_9allocatorIcEEEEEENS_22__unordered_map_hasherIiS8_NS_4hashIiEENS_8equal_toIiEELb1EEENS_21__unordered_map_equalIiS8_SD_SB_Lb1EEENS5_IS8_EEE13hash_functionB8ue170006Ev, symObjAddr: 0x48F4, symBinAddr: 0x100004F48, symSize: 0x28 }
  - { offsetInCU: 0x1E722, offset: 0x1E722, size: 0x8, addend: 0x0, symName: __ZNKSt3__122__unordered_map_hasherIiNS_17__hash_value_typeIiNS_12basic_stringIcNS_11char_traitsIcEENS_9allocatorIcEEEEEENS_4hashIiEENS_8equal_toIiEELb1EEclB8ue170006ERKi, symObjAddr: 0x491C, symBinAddr: 0x100004F70, symSize: 0x30 }
  - { offsetInCU: 0x1E757, offset: 0x1E757, size: 0x8, addend: 0x0, symName: __ZNKSt3__112__hash_tableINS_17__hash_value_typeIiNS_12basic_stringIcNS_11char_traitsIcEENS_9allocatorIcEEEEEENS_22__unordered_map_hasherIiS8_NS_4hashIiEENS_8equal_toIiEELb1EEENS_21__unordered_map_equalIiS8_SD_SB_Lb1EEENS5_IS8_EEE12bucket_countB8ue170006Ev, symObjAddr: 0x494C, symBinAddr: 0x100004FA0, symSize: 0x28 }
  - { offsetInCU: 0x1E77D, offset: 0x1E77D, size: 0x8, addend: 0x0, symName: __ZNKSt3__110unique_ptrIA_PNS_16__hash_node_baseIPNS_11__hash_nodeINS_17__hash_value_typeIiNS_12basic_stringIcNS_11char_traitsIcEENS_9allocatorIcEEEEEEPvEEEENS_25__bucket_list_deallocatorINS7_ISF_EEEEEixB8ue170006Em, symObjAddr: 0x4A0C, symBinAddr: 0x100005060, symSize: 0x34 }
  - { offsetInCU: 0x1E7B2, offset: 0x1E7B2, size: 0x8, addend: 0x0, symName: __ZNKSt3__116__hash_node_baseIPNS_11__hash_nodeINS_17__hash_value_typeIiNS_12basic_stringIcNS_11char_traitsIcEENS_9allocatorIcEEEEEEPvEEE6__hashB8ue170006Ev, symObjAddr: 0x4A40, symBinAddr: 0x100005094, symSize: 0x18 }
  - { offsetInCU: 0x1E7D8, offset: 0x1E7D8, size: 0x8, addend: 0x0, symName: __ZNSt3__112__hash_tableINS_17__hash_value_typeIiNS_12basic_stringIcNS_11char_traitsIcEENS_9allocatorIcEEEEEENS_22__unordered_map_hasherIiS8_NS_4hashIiEENS_8equal_toIiEELb1EEENS_21__unordered_map_equalIiS8_SD_SB_Lb1EEENS5_IS8_EEE6key_eqB8ue170006Ev, symObjAddr: 0x4A58, symBinAddr: 0x1000050AC, symSize: 0x28 }
  - { offsetInCU: 0x1E7FE, offset: 0x1E7FE, size: 0x8, addend: 0x0, symName: __ZNKSt3__121__unordered_map_equalIiNS_17__hash_value_typeIiNS_12basic_stringIcNS_11char_traitsIcEENS_9allocatorIcEEEEEENS_8equal_toIiEENS_4hashIiEELb1EEclB8ue170006ERKS8_RKi, symObjAddr: 0x4A80, symBinAddr: 0x1000050D4, symSize: 0x48 }
  - { offsetInCU: 0x1E842, offset: 0x1E842, size: 0x8, addend: 0x0, symName: __ZNSt3__115__hash_iteratorIPNS_11__hash_nodeINS_17__hash_value_typeIiNS_12basic_stringIcNS_11char_traitsIcEENS_9allocatorIcEEEEEEPvEEEC1B8ue170006EPNS_16__hash_node_baseISC_EE, symObjAddr: 0x4AC8, symBinAddr: 0x10000511C, symSize: 0x34 }
  - { offsetInCU: 0x1E87B, offset: 0x1E87B, size: 0x8, addend: 0x0, symName: __ZNSt3__112__hash_tableINS_17__hash_value_typeIiNS_12basic_stringIcNS_11char_traitsIcEENS_9allocatorIcEEEEEENS_22__unordered_map_hasherIiS8_NS_4hashIiEENS_8equal_toIiEELb1EEENS_21__unordered_map_equalIiS8_SD_SB_Lb1EEENS5_IS8_EEE3endEv, symObjAddr: 0x4AFC, symBinAddr: 0x100005150, symSize: 0x2C }
  - { offsetInCU: 0x1E8A3, offset: 0x1E8A3, size: 0x8, addend: 0x0, symName: __ZNSt3__117__compressed_pairImNS_22__unordered_map_hasherIiNS_17__hash_value_typeIiNS_12basic_stringIcNS_11char_traitsIcEENS_9allocatorIcEEEEEENS_4hashIiEENS_8equal_toIiEELb1EEEE6secondB8ue170006Ev, symObjAddr: 0x4B28, symBinAddr: 0x10000517C, symSize: 0x24 }
  - { offsetInCU: 0x1E8C9, offset: 0x1E8C9, size: 0x8, addend: 0x0, symName: __ZNSt3__122__compressed_pair_elemINS_22__unordered_map_hasherIiNS_17__hash_value_typeIiNS_12basic_stringIcNS_11char_traitsIcEENS_9allocatorIcEEEEEENS_4hashIiEENS_8equal_toIiEELb1EEELi1ELb1EE5__getB8ue170006Ev, symObjAddr: 0x4B4C, symBinAddr: 0x1000051A0, symSize: 0x14 }
  - { offsetInCU: 0x1E8EF, offset: 0x1E8EF, size: 0x8, addend: 0x0, symName: __ZNKSt3__14hashIiEclB8ue170006Ei, symObjAddr: 0x4B60, symBinAddr: 0x1000051B4, symSize: 0x18 }
  - { offsetInCU: 0x1E924, offset: 0x1E924, size: 0x8, addend: 0x0, symName: __ZNKSt3__110unique_ptrIA_PNS_16__hash_node_baseIPNS_11__hash_nodeINS_17__hash_value_typeIiNS_12basic_stringIcNS_11char_traitsIcEENS_9allocatorIcEEEEEEPvEEEENS_25__bucket_list_deallocatorINS7_ISF_EEEEE11get_deleterB8ue170006Ev, symObjAddr: 0x4B78, symBinAddr: 0x1000051CC, symSize: 0x24 }
  - { offsetInCU: 0x1E94A, offset: 0x1E94A, size: 0x8, addend: 0x0, symName: __ZNKSt3__125__bucket_list_deallocatorINS_9allocatorIPNS_16__hash_node_baseIPNS_11__hash_nodeINS_17__hash_value_typeIiNS_12basic_stringIcNS_11char_traitsIcEENS1_IcEEEEEEPvEEEEEEE4sizeB8ue170006Ev, symObjAddr: 0x4B9C, symBinAddr: 0x1000051F0, symSize: 0x28 }
  - { offsetInCU: 0x1E970, offset: 0x1E970, size: 0x8, addend: 0x0, symName: __ZNKSt3__117__compressed_pairIPPNS_16__hash_node_baseIPNS_11__hash_nodeINS_17__hash_value_typeIiNS_12basic_stringIcNS_11char_traitsIcEENS_9allocatorIcEEEEEEPvEEEENS_25__bucket_list_deallocatorINS7_ISF_EEEEE6secondB8ue170006Ev, symObjAddr: 0x4BC4, symBinAddr: 0x100005218, symSize: 0x28 }
  - { offsetInCU: 0x1E996, offset: 0x1E996, size: 0x8, addend: 0x0, symName: __ZNKSt3__122__compressed_pair_elemINS_25__bucket_list_deallocatorINS_9allocatorIPNS_16__hash_node_baseIPNS_11__hash_nodeINS_17__hash_value_typeIiNS_12basic_stringIcNS_11char_traitsIcEENS2_IcEEEEEEPvEEEEEEEELi1ELb0EE5__getB8ue170006Ev, symObjAddr: 0x4BEC, symBinAddr: 0x100005240, symSize: 0x14 }
  - { offsetInCU: 0x1E9BC, offset: 0x1E9BC, size: 0x8, addend: 0x0, symName: __ZNKSt3__117__compressed_pairImNS_9allocatorIPNS_16__hash_node_baseIPNS_11__hash_nodeINS_17__hash_value_typeIiNS_12basic_stringIcNS_11char_traitsIcEENS1_IcEEEEEEPvEEEEEEE5firstB8ue170006Ev, symObjAddr: 0x4C00, symBinAddr: 0x100005254, symSize: 0x24 }
  - { offsetInCU: 0x1E9E2, offset: 0x1E9E2, size: 0x8, addend: 0x0, symName: __ZNKSt3__122__compressed_pair_elemImLi0ELb0EE5__getB8ue170006Ev, symObjAddr: 0x4C24, symBinAddr: 0x100005278, symSize: 0x14 }
  - { offsetInCU: 0x1EA08, offset: 0x1EA08, size: 0x8, addend: 0x0, symName: __ZNKSt3__117__compressed_pairIPPNS_16__hash_node_baseIPNS_11__hash_nodeINS_17__hash_value_typeIiNS_12basic_stringIcNS_11char_traitsIcEENS_9allocatorIcEEEEEEPvEEEENS_25__bucket_list_deallocatorINS7_ISF_EEEEE5firstB8ue170006Ev, symObjAddr: 0x4C38, symBinAddr: 0x10000528C, symSize: 0x24 }
  - { offsetInCU: 0x1EA2E, offset: 0x1EA2E, size: 0x8, addend: 0x0, symName: __ZNKSt3__122__compressed_pair_elemIPPNS_16__hash_node_baseIPNS_11__hash_nodeINS_17__hash_value_typeIiNS_12basic_stringIcNS_11char_traitsIcEENS_9allocatorIcEEEEEEPvEEEELi0ELb0EE5__getB8ue170006Ev, symObjAddr: 0x4C5C, symBinAddr: 0x1000052B0, symSize: 0x14 }
  - { offsetInCU: 0x1EA54, offset: 0x1EA54, size: 0x8, addend: 0x0, symName: __ZNSt3__117__compressed_pairIfNS_21__unordered_map_equalIiNS_17__hash_value_typeIiNS_12basic_stringIcNS_11char_traitsIcEENS_9allocatorIcEEEEEENS_8equal_toIiEENS_4hashIiEELb1EEEE6secondB8ue170006Ev, symObjAddr: 0x4C70, symBinAddr: 0x1000052C4, symSize: 0x24 }
  - { offsetInCU: 0x1EA7A, offset: 0x1EA7A, size: 0x8, addend: 0x0, symName: __ZNSt3__122__compressed_pair_elemINS_21__unordered_map_equalIiNS_17__hash_value_typeIiNS_12basic_stringIcNS_11char_traitsIcEENS_9allocatorIcEEEEEENS_8equal_toIiEENS_4hashIiEELb1EEELi1ELb1EE5__getB8ue170006Ev, symObjAddr: 0x4C94, symBinAddr: 0x1000052E8, symSize: 0x14 }
  - { offsetInCU: 0x1EAA0, offset: 0x1EAA0, size: 0x8, addend: 0x0, symName: __ZNKSt3__18equal_toIiEclB8ue170006ERKiS3_, symObjAddr: 0x4CA8, symBinAddr: 0x1000052FC, symSize: 0x34 }
  - { offsetInCU: 0x1EAE4, offset: 0x1EAE4, size: 0x8, addend: 0x0, symName: __ZNKSt3__117__hash_value_typeIiNS_12basic_stringIcNS_11char_traitsIcEENS_9allocatorIcEEEEE11__get_valueB8ue170006Ev, symObjAddr: 0x4CDC, symBinAddr: 0x100005330, symSize: 0x14 }
  - { offsetInCU: 0x1EB0A, offset: 0x1EB0A, size: 0x8, addend: 0x0, symName: __ZNSt3__115__hash_iteratorIPNS_11__hash_nodeINS_17__hash_value_typeIiNS_12basic_stringIcNS_11char_traitsIcEENS_9allocatorIcEEEEEEPvEEEC2B8ue170006EPNS_16__hash_node_baseISC_EE, symObjAddr: 0x4CF0, symBinAddr: 0x100005344, symSize: 0x20 }
  - { offsetInCU: 0x1EB43, offset: 0x1EB43, size: 0x8, addend: 0x0, symName: __ZNSt3__119__hash_map_iteratorINS_15__hash_iteratorIPNS_11__hash_nodeINS_17__hash_value_typeIiNS_12basic_stringIcNS_11char_traitsIcEENS_9allocatorIcEEEEEEPvEEEEEC2B8ue170006ESE_, symObjAddr: 0x4D10, symBinAddr: 0x100005364, symSize: 0x20 }
  - { offsetInCU: 0x1EB7C, offset: 0x1EB7C, size: 0x8, addend: 0x0, symName: __ZNSt3__114pointer_traitsIPNS_4pairIKiNS_12basic_stringIcNS_11char_traitsIcEENS_9allocatorIcEEEEEEE10pointer_toB8ue170006ERS9_, symObjAddr: 0x4D94, symBinAddr: 0x1000053E8, symSize: 0x14 }
  - { offsetInCU: 0x1EB9F, offset: 0x1EB9F, size: 0x8, addend: 0x0, symName: __ZNKSt3__115__hash_iteratorIPNS_11__hash_nodeINS_17__hash_value_typeIiNS_12basic_stringIcNS_11char_traitsIcEENS_9allocatorIcEEEEEEPvEEEptB8ue170006Ev, symObjAddr: 0x4DA8, symBinAddr: 0x1000053FC, symSize: 0x30 }
  - { offsetInCU: 0x1EBC5, offset: 0x1EBC5, size: 0x8, addend: 0x0, symName: __ZNSt3__114pointer_traitsIPNS_17__hash_value_typeIiNS_12basic_stringIcNS_11char_traitsIcEENS_9allocatorIcEEEEEEE10pointer_toB8ue170006ERS8_, symObjAddr: 0x4DD8, symBinAddr: 0x10000542C, symSize: 0x14 }
  - { offsetInCU: 0x1EBE8, offset: 0x1EBE8, size: 0x8, addend: 0x0, symName: __ZNSt3__116allocator_traitsINS_9allocatorINS_11__hash_nodeINS_17__hash_value_typeIiNS_12basic_stringIcNS_11char_traitsIcEENS1_IcEEEEEEPvEEEEE8allocateB8ue170006ERSC_m, symObjAddr: 0x4DEC, symBinAddr: 0x100005440, symSize: 0x2C }
  - { offsetInCU: 0x1EC1B, offset: 0x1EC1B, size: 0x8, addend: 0x0, symName: __ZNSt3__126__hash_map_node_destructorINS_9allocatorINS_11__hash_nodeINS_17__hash_value_typeIiNS_12basic_stringIcNS_11char_traitsIcEENS1_IcEEEEEEPvEEEEEC1B8ue170006ERSC_, symObjAddr: 0x4E18, symBinAddr: 0x10000546C, symSize: 0x34 }
  - { offsetInCU: 0x1EC5A, offset: 0x1EC5A, size: 0x8, addend: 0x0, symName: __ZNSt3__110unique_ptrINS_11__hash_nodeINS_17__hash_value_typeIiNS_12basic_stringIcNS_11char_traitsIcEENS_9allocatorIcEEEEEEPvEENS_26__hash_map_node_destructorINS6_ISB_EEEEEC1B8ue170006ILb1EvEEPSB_NS_16__dependent_typeINS_27__unique_ptr_deleter_sfinaeISE_EEXT_EE20__good_rval_ref_typeE, symObjAddr: 0x4E4C, symBinAddr: 0x1000054A0, symSize: 0x3C }
  - { offsetInCU: 0x1ECAB, offset: 0x1ECAB, size: 0x8, addend: 0x0, symName: __ZNSt3__116allocator_traitsINS_9allocatorINS_11__hash_nodeINS_17__hash_value_typeIiNS_12basic_stringIcNS_11char_traitsIcEENS1_IcEEEEEEPvEEEEE9constructB8ue170006IKiJRSF_EvEEvRSC_PT_DpOT0_, symObjAddr: 0x4E88, symBinAddr: 0x1000054DC, symSize: 0x34 }
  - { offsetInCU: 0x1ED02, offset: 0x1ED02, size: 0x8, addend: 0x0, symName: __ZNKSt3__110unique_ptrINS_11__hash_nodeINS_17__hash_value_typeIiNS_12basic_stringIcNS_11char_traitsIcEENS_9allocatorIcEEEEEEPvEENS_26__hash_map_node_destructorINS6_ISB_EEEEEptB8ue170006Ev, symObjAddr: 0x4EBC, symBinAddr: 0x100005510, symSize: 0x28 }
  - { offsetInCU: 0x1ED28, offset: 0x1ED28, size: 0x8, addend: 0x0, symName: __ZNSt3__110unique_ptrINS_11__hash_nodeINS_17__hash_value_typeIiNS_12basic_stringIcNS_11char_traitsIcEENS_9allocatorIcEEEEEEPvEENS_26__hash_map_node_destructorINS6_ISB_EEEEE11get_deleterB8ue170006Ev, symObjAddr: 0x4EE4, symBinAddr: 0x100005538, symSize: 0x24 }
  - { offsetInCU: 0x1ED4E, offset: 0x1ED4E, size: 0x8, addend: 0x0, symName: __ZNSt3__116allocator_traitsINS_9allocatorINS_11__hash_nodeINS_17__hash_value_typeIiNS_12basic_stringIcNS_11char_traitsIcEENS1_IcEEEEEEPvEEEEE9constructB8ue170006IS8_JEvEEvRSC_PT_DpOT0_, symObjAddr: 0x4F08, symBinAddr: 0x10000555C, symSize: 0x2C }
  - { offsetInCU: 0x1ED90, offset: 0x1ED90, size: 0x8, addend: 0x0, symName: __ZNSt3__19allocatorINS_11__hash_nodeINS_17__hash_value_typeIiNS_12basic_stringIcNS_11char_traitsIcEENS0_IcEEEEEEPvEEE8allocateB8ue170006Em, symObjAddr: 0x4F34, symBinAddr: 0x100005588, symSize: 0x8C }
  - { offsetInCU: 0x1EDCE, offset: 0x1EDCE, size: 0x8, addend: 0x0, symName: __ZNSt3__116allocator_traitsINS_9allocatorINS_11__hash_nodeINS_17__hash_value_typeIiNS_12basic_stringIcNS_11char_traitsIcEENS1_IcEEEEEEPvEEEEE8max_sizeB8ue170006ISC_vEEmRKSC_, symObjAddr: 0x4FC0, symBinAddr: 0x100005614, symSize: 0x24 }
  - { offsetInCU: 0x1EDFC, offset: 0x1EDFC, size: 0x8, addend: 0x0, symName: __ZNKSt3__19allocatorINS_11__hash_nodeINS_17__hash_value_typeIiNS_12basic_stringIcNS_11char_traitsIcEENS0_IcEEEEEEPvEEE8max_sizeB8ue170006Ev, symObjAddr: 0x4FE4, symBinAddr: 0x100005638, symSize: 0x18 }
  - { offsetInCU: 0x1EE22, offset: 0x1EE22, size: 0x8, addend: 0x0, symName: __ZNSt3__126__hash_map_node_destructorINS_9allocatorINS_11__hash_nodeINS_17__hash_value_typeIiNS_12basic_stringIcNS_11char_traitsIcEENS1_IcEEEEEEPvEEEEEC2B8ue170006ERSC_, symObjAddr: 0x4FFC, symBinAddr: 0x100005650, symSize: 0x28 }
  - { offsetInCU: 0x1EE5B, offset: 0x1EE5B, size: 0x8, addend: 0x0, symName: __ZNSt3__110unique_ptrINS_11__hash_nodeINS_17__hash_value_typeIiNS_12basic_stringIcNS_11char_traitsIcEENS_9allocatorIcEEEEEEPvEENS_26__hash_map_node_destructorINS6_ISB_EEEEEC2B8ue170006ILb1EvEEPSB_NS_16__dependent_typeINS_27__unique_ptr_deleter_sfinaeISE_EEXT_EE20__good_rval_ref_typeE, symObjAddr: 0x5024, symBinAddr: 0x100005678, symSize: 0x5C }
  - { offsetInCU: 0x1EEAC, offset: 0x1EEAC, size: 0x8, addend: 0x0, symName: __ZNSt3__117__compressed_pairIPNS_11__hash_nodeINS_17__hash_value_typeIiNS_12basic_stringIcNS_11char_traitsIcEENS_9allocatorIcEEEEEEPvEENS_26__hash_map_node_destructorINS6_ISB_EEEEEC1B8ue170006IRSC_SF_EEOT_OT0_, symObjAddr: 0x5080, symBinAddr: 0x1000056D4, symSize: 0x3C }
  - { offsetInCU: 0x1EF04, offset: 0x1EF04, size: 0x8, addend: 0x0, symName: __ZNSt3__117__compressed_pairIPNS_11__hash_nodeINS_17__hash_value_typeIiNS_12basic_stringIcNS_11char_traitsIcEENS_9allocatorIcEEEEEEPvEENS_26__hash_map_node_destructorINS6_ISB_EEEEEC2B8ue170006IRSC_SF_EEOT_OT0_, symObjAddr: 0x50BC, symBinAddr: 0x100005710, symSize: 0x48 }
  - { offsetInCU: 0x1EF5C, offset: 0x1EF5C, size: 0x8, addend: 0x0, symName: __ZNSt3__122__compressed_pair_elemIPNS_11__hash_nodeINS_17__hash_value_typeIiNS_12basic_stringIcNS_11char_traitsIcEENS_9allocatorIcEEEEEEPvEELi0ELb0EEC2B8ue170006IRSC_vEEOT_, symObjAddr: 0x5104, symBinAddr: 0x100005758, symSize: 0x24 }
  - { offsetInCU: 0x1EF9E, offset: 0x1EF9E, size: 0x8, addend: 0x0, symName: __ZNSt3__122__compressed_pair_elemINS_26__hash_map_node_destructorINS_9allocatorINS_11__hash_nodeINS_17__hash_value_typeIiNS_12basic_stringIcNS_11char_traitsIcEENS2_IcEEEEEEPvEEEEEELi1ELb0EEC2B8ue170006ISE_vEEOT_, symObjAddr: 0x5128, symBinAddr: 0x10000577C, symSize: 0x24 }
  - { offsetInCU: 0x1EFE0, offset: 0x1EFE0, size: 0x8, addend: 0x0, symName: __ZNSt3__19allocatorINS_11__hash_nodeINS_17__hash_value_typeIiNS_12basic_stringIcNS_11char_traitsIcEENS0_IcEEEEEEPvEEE9constructB8ue170006IKiJRSD_EEEvPT_DpOT0_, symObjAddr: 0x514C, symBinAddr: 0x1000057A0, symSize: 0x28 }
  - { offsetInCU: 0x1F036, offset: 0x1F036, size: 0x8, addend: 0x0, symName: __ZNKSt3__117__compressed_pairIPNS_11__hash_nodeINS_17__hash_value_typeIiNS_12basic_stringIcNS_11char_traitsIcEENS_9allocatorIcEEEEEEPvEENS_26__hash_map_node_destructorINS6_ISB_EEEEE5firstB8ue170006Ev, symObjAddr: 0x5174, symBinAddr: 0x1000057C8, symSize: 0x24 }
  - { offsetInCU: 0x1F05C, offset: 0x1F05C, size: 0x8, addend: 0x0, symName: __ZNKSt3__122__compressed_pair_elemIPNS_11__hash_nodeINS_17__hash_value_typeIiNS_12basic_stringIcNS_11char_traitsIcEENS_9allocatorIcEEEEEEPvEELi0ELb0EE5__getB8ue170006Ev, symObjAddr: 0x5198, symBinAddr: 0x1000057EC, symSize: 0x14 }
  - { offsetInCU: 0x1F082, offset: 0x1F082, size: 0x8, addend: 0x0, symName: __ZNSt3__117__compressed_pairIPNS_11__hash_nodeINS_17__hash_value_typeIiNS_12basic_stringIcNS_11char_traitsIcEENS_9allocatorIcEEEEEEPvEENS_26__hash_map_node_destructorINS6_ISB_EEEEE6secondB8ue170006Ev, symObjAddr: 0x51AC, symBinAddr: 0x100005800, symSize: 0x28 }
  - { offsetInCU: 0x1F0A8, offset: 0x1F0A8, size: 0x8, addend: 0x0, symName: __ZNSt3__122__compressed_pair_elemINS_26__hash_map_node_destructorINS_9allocatorINS_11__hash_nodeINS_17__hash_value_typeIiNS_12basic_stringIcNS_11char_traitsIcEENS2_IcEEEEEEPvEEEEEELi1ELb0EE5__getB8ue170006Ev, symObjAddr: 0x51D4, symBinAddr: 0x100005828, symSize: 0x14 }
  - { offsetInCU: 0x1F0CE, offset: 0x1F0CE, size: 0x8, addend: 0x0, symName: __ZNSt3__19allocatorINS_11__hash_nodeINS_17__hash_value_typeIiNS_12basic_stringIcNS_11char_traitsIcEENS0_IcEEEEEEPvEEE9constructB8ue170006IS7_JEEEvPT_DpOT0_, symObjAddr: 0x51E8, symBinAddr: 0x10000583C, symSize: 0x28 }
  - { offsetInCU: 0x1F110, offset: 0x1F110, size: 0x8, addend: 0x0, symName: __ZNKSt3__122__unordered_map_hasherIiNS_17__hash_value_typeIiNS_12basic_stringIcNS_11char_traitsIcEENS_9allocatorIcEEEEEENS_4hashIiEENS_8equal_toIiEELb1EEclB8ue170006ERKS8_, symObjAddr: 0x5210, symBinAddr: 0x100005864, symSize: 0x40 }
  - { offsetInCU: 0x1F145, offset: 0x1F145, size: 0x8, addend: 0x0, symName: __ZNSt3__112__hash_tableINS_17__hash_value_typeIiNS_12basic_stringIcNS_11char_traitsIcEENS_9allocatorIcEEEEEENS_22__unordered_map_hasherIiS8_NS_4hashIiEENS_8equal_toIiEELb1EEENS_21__unordered_map_equalIiS8_SD_SB_Lb1EEENS5_IS8_EEE28__node_insert_unique_prepareB8ue170006EmRS8_, symObjAddr: 0x5250, symBinAddr: 0x1000058A4, symSize: 0x290 }
  - { offsetInCU: 0x1F1C6, offset: 0x1F1C6, size: 0x8, addend: 0x0, symName: __ZNSt3__112__hash_tableINS_17__hash_value_typeIiNS_12basic_stringIcNS_11char_traitsIcEENS_9allocatorIcEEEEEENS_22__unordered_map_hasherIiS8_NS_4hashIiEENS_8equal_toIiEELb1EEENS_21__unordered_map_equalIiS8_SD_SB_Lb1EEENS5_IS8_EEE28__node_insert_unique_performB8ue170006EPNS_11__hash_nodeIS8_PvEE, symObjAddr: 0x54E0, symBinAddr: 0x100005B34, symSize: 0x154 }
  - { offsetInCU: 0x1F22A, offset: 0x1F22A, size: 0x8, addend: 0x0, symName: __ZNSt3__116__hash_node_baseIPNS_11__hash_nodeINS_17__hash_value_typeIiNS_12basic_stringIcNS_11char_traitsIcEENS_9allocatorIcEEEEEEPvEEE5__ptrB8ue170006Ev, symObjAddr: 0x5634, symBinAddr: 0x100005C88, symSize: 0x24 }
  - { offsetInCU: 0x1F250, offset: 0x1F250, size: 0x8, addend: 0x0, symName: __ZNSt3__14pairINS_15__hash_iteratorIPNS_11__hash_nodeINS_17__hash_value_typeIiNS_12basic_stringIcNS_11char_traitsIcEENS_9allocatorIcEEEEEEPvEEEEbEC1B8ue170006ERKSE_RKb, symObjAddr: 0x5658, symBinAddr: 0x100005CAC, symSize: 0x3C }
  - { offsetInCU: 0x1F296, offset: 0x1F296, size: 0x8, addend: 0x0, symName: __ZNKSt3__121__unordered_map_equalIiNS_17__hash_value_typeIiNS_12basic_stringIcNS_11char_traitsIcEENS_9allocatorIcEEEEEENS_8equal_toIiEENS_4hashIiEELb1EEclB8ue170006ERKS8_SF_, symObjAddr: 0x5694, symBinAddr: 0x100005CE8, symSize: 0x54 }
  - { offsetInCU: 0x1F2DA, offset: 0x1F2DA, size: 0x8, addend: 0x0, symName: __ZNSt3__112__hash_tableINS_17__hash_value_typeIiNS_12basic_stringIcNS_11char_traitsIcEENS_9allocatorIcEEEEEENS_22__unordered_map_hasherIiS8_NS_4hashIiEENS_8equal_toIiEELb1EEENS_21__unordered_map_equalIiS8_SD_SB_Lb1EEENS5_IS8_EEE4sizeB8ue170006Ev, symObjAddr: 0x56E8, symBinAddr: 0x100005D3C, symSize: 0x28 }
  - { offsetInCU: 0x1F300, offset: 0x1F300, size: 0x8, addend: 0x0, symName: __ZNSt3__112__hash_tableINS_17__hash_value_typeIiNS_12basic_stringIcNS_11char_traitsIcEENS_9allocatorIcEEEEEENS_22__unordered_map_hasherIiS8_NS_4hashIiEENS_8equal_toIiEELb1EEENS_21__unordered_map_equalIiS8_SD_SB_Lb1EEENS5_IS8_EEE15max_load_factorB8ue170006Ev, symObjAddr: 0x5710, symBinAddr: 0x100005D64, symSize: 0x28 }
  - { offsetInCU: 0x1F326, offset: 0x1F326, size: 0x8, addend: 0x0, symName: __ZNSt3__112__hash_tableINS_17__hash_value_typeIiNS_12basic_stringIcNS_11char_traitsIcEENS_9allocatorIcEEEEEENS_22__unordered_map_hasherIiS8_NS_4hashIiEENS_8equal_toIiEELb1EEENS_21__unordered_map_equalIiS8_SD_SB_Lb1EEENS5_IS8_EEE15__rehash_uniqueB8ue170006Em, symObjAddr: 0x5738, symBinAddr: 0x100005D8C, symSize: 0x2C }
  - { offsetInCU: 0x1F35A, offset: 0x1F35A, size: 0x8, addend: 0x0, symName: __Z4ceilB8ue170006f, symObjAddr: 0x57E0, symBinAddr: 0x100005E34, symSize: 0x18 }
  - { offsetInCU: 0x1F389, offset: 0x1F389, size: 0x8, addend: 0x0, symName: __ZNSt3__117__compressed_pairImNS_22__unordered_map_hasherIiNS_17__hash_value_typeIiNS_12basic_stringIcNS_11char_traitsIcEENS_9allocatorIcEEEEEENS_4hashIiEENS_8equal_toIiEELb1EEEE5firstB8ue170006Ev, symObjAddr: 0x57F8, symBinAddr: 0x100005E4C, symSize: 0x24 }
  - { offsetInCU: 0x1F3AF, offset: 0x1F3AF, size: 0x8, addend: 0x0, symName: __ZNSt3__117__compressed_pairIfNS_21__unordered_map_equalIiNS_17__hash_value_typeIiNS_12basic_stringIcNS_11char_traitsIcEENS_9allocatorIcEEEEEENS_8equal_toIiEENS_4hashIiEELb1EEEE5firstB8ue170006Ev, symObjAddr: 0x581C, symBinAddr: 0x100005E70, symSize: 0x24 }
  - { offsetInCU: 0x1F3D5, offset: 0x1F3D5, size: 0x8, addend: 0x0, symName: __ZNSt3__122__compressed_pair_elemIfLi0ELb0EE5__getB8ue170006Ev, symObjAddr: 0x5840, symBinAddr: 0x100005E94, symSize: 0x14 }
  - { offsetInCU: 0x1F3FB, offset: 0x1F3FB, size: 0x8, addend: 0x0, symName: __ZNSt3__112__hash_tableINS_17__hash_value_typeIiNS_12basic_stringIcNS_11char_traitsIcEENS_9allocatorIcEEEEEENS_22__unordered_map_hasherIiS8_NS_4hashIiEENS_8equal_toIiEELb1EEENS_21__unordered_map_equalIiS8_SD_SB_Lb1EEENS5_IS8_EEE8__rehashILb1EEEvm, symObjAddr: 0x5854, symBinAddr: 0x100005EA8, symSize: 0x1A8 }
  - { offsetInCU: 0x1F44B, offset: 0x1F44B, size: 0x8, addend: 0x0, symName: __ZNSt3__112__hash_tableINS_17__hash_value_typeIiNS_12basic_stringIcNS_11char_traitsIcEENS_9allocatorIcEEEEEENS_22__unordered_map_hasherIiS8_NS_4hashIiEENS_8equal_toIiEELb1EEENS_21__unordered_map_equalIiS8_SD_SB_Lb1EEENS5_IS8_EEE11__do_rehashILb1EEEvm, symObjAddr: 0x59FC, symBinAddr: 0x100006050, symSize: 0x288 }
  - { offsetInCU: 0x1F52E, offset: 0x1F52E, size: 0x8, addend: 0x0, symName: __ZNSt3__110unique_ptrIA_PNS_16__hash_node_baseIPNS_11__hash_nodeINS_17__hash_value_typeIiNS_12basic_stringIcNS_11char_traitsIcEENS_9allocatorIcEEEEEEPvEEEENS_25__bucket_list_deallocatorINS7_ISF_EEEEE11get_deleterB8ue170006Ev, symObjAddr: 0x5CF0, symBinAddr: 0x100006344, symSize: 0x24 }
  - { offsetInCU: 0x1F554, offset: 0x1F554, size: 0x8, addend: 0x0, symName: __ZNSt3__110unique_ptrIA_PNS_16__hash_node_baseIPNS_11__hash_nodeINS_17__hash_value_typeIiNS_12basic_stringIcNS_11char_traitsIcEENS_9allocatorIcEEEEEEPvEEEENS_25__bucket_list_deallocatorINS7_ISF_EEEEE5resetB8ue170006IPSF_EENS_9enable_ifIXsr28_CheckArrayPointerConversionIT_EE5valueEvE4typeESO_, symObjAddr: 0x5D14, symBinAddr: 0x100006368, symSize: 0x78 }
  - { offsetInCU: 0x1F5A1, offset: 0x1F5A1, size: 0x8, addend: 0x0, symName: __ZNSt3__116allocator_traitsINS_9allocatorIPNS_16__hash_node_baseIPNS_11__hash_nodeINS_17__hash_value_typeIiNS_12basic_stringIcNS_11char_traitsIcEENS1_IcEEEEEEPvEEEEEEE8allocateB8ue170006ERSG_m, symObjAddr: 0x5D8C, symBinAddr: 0x1000063E0, symSize: 0x2C }
  - { offsetInCU: 0x1F5D4, offset: 0x1F5D4, size: 0x8, addend: 0x0, symName: __ZNSt3__19allocatorIPNS_16__hash_node_baseIPNS_11__hash_nodeINS_17__hash_value_typeIiNS_12basic_stringIcNS_11char_traitsIcEENS0_IcEEEEEEPvEEEEE8allocateB8ue170006Em, symObjAddr: 0x5DB8, symBinAddr: 0x10000640C, symSize: 0x84 }
  - { offsetInCU: 0x1F612, offset: 0x1F612, size: 0x8, addend: 0x0, symName: __ZNSt3__116allocator_traitsINS_9allocatorIPNS_16__hash_node_baseIPNS_11__hash_nodeINS_17__hash_value_typeIiNS_12basic_stringIcNS_11char_traitsIcEENS1_IcEEEEEEPvEEEEEEE8max_sizeB8ue170006ISG_vEEmRKSG_, symObjAddr: 0x5E3C, symBinAddr: 0x100006490, symSize: 0x24 }
  - { offsetInCU: 0x1F640, offset: 0x1F640, size: 0x8, addend: 0x0, symName: __ZNKSt3__19allocatorIPNS_16__hash_node_baseIPNS_11__hash_nodeINS_17__hash_value_typeIiNS_12basic_stringIcNS_11char_traitsIcEENS0_IcEEEEEEPvEEEEE8max_sizeB8ue170006Ev, symObjAddr: 0x5E60, symBinAddr: 0x1000064B4, symSize: 0x14 }
  - { offsetInCU: 0x1F670, offset: 0x1F670, size: 0x8, addend: 0x0, symName: __ZNKSt3__16__lessIvvEclB8ue170006ImmEEbRKT_RKT0_, symObjAddr: 0x5EE4, symBinAddr: 0x100006538, symSize: 0x34 }
  - { offsetInCU: 0x1F6C4, offset: 0x1F6C4, size: 0x8, addend: 0x0, symName: __ZNSt3__14pairINS_15__hash_iteratorIPNS_11__hash_nodeINS_17__hash_value_typeIiNS_12basic_stringIcNS_11char_traitsIcEENS_9allocatorIcEEEEEEPvEEEEbEC2B8ue170006ERKSE_RKb, symObjAddr: 0x5F18, symBinAddr: 0x10000656C, symSize: 0x38 }
  - { offsetInCU: 0x1F70A, offset: 0x1F70A, size: 0x8, addend: 0x0, symName: __ZNSt3__14pairINS_19__hash_map_iteratorINS_15__hash_iteratorIPNS_11__hash_nodeINS_17__hash_value_typeIiNS_12basic_stringIcNS_11char_traitsIcEENS_9allocatorIcEEEEEEPvEEEEEEbEC2B8ue170006ISF_bEERKNS0_IT_T0_EE, symObjAddr: 0x5F50, symBinAddr: 0x1000065A4, symSize: 0x50 }
  - { offsetInCU: 0x1F754, offset: 0x1F754, size: 0x8, addend: 0x0, symName: __ZNSt3__117__compressed_pairIPNS_11__hash_nodeINS_17__hash_value_typeIiNS_12basic_stringIcNS_11char_traitsIcEENS_9allocatorIcEEEEEEPvEENS_26__hash_map_node_destructorINS6_ISB_EEEEE5firstB8ue170006Ev, symObjAddr: 0x5FA0, symBinAddr: 0x1000065F4, symSize: 0x24 }
  - { offsetInCU: 0x1F77A, offset: 0x1F77A, size: 0x8, addend: 0x0, symName: __ZNSt3__122__compressed_pair_elemIPNS_11__hash_nodeINS_17__hash_value_typeIiNS_12basic_stringIcNS_11char_traitsIcEENS_9allocatorIcEEEEEEPvEELi0ELb0EE5__getB8ue170006Ev, symObjAddr: 0x5FC4, symBinAddr: 0x100006618, symSize: 0x14 }
  - { offsetInCU: 0x1F7A0, offset: 0x1F7A0, size: 0x8, addend: 0x0, symName: __ZNSt3__110unique_ptrINS_11__hash_nodeINS_17__hash_value_typeIiNS_12basic_stringIcNS_11char_traitsIcEENS_9allocatorIcEEEEEEPvEENS_26__hash_map_node_destructorINS6_ISB_EEEEED2B8ue170006Ev, symObjAddr: 0x5FD8, symBinAddr: 0x10000662C, symSize: 0x30 }
  - { offsetInCU: 0x1F7CA, offset: 0x1F7CA, size: 0x8, addend: 0x0, symName: __ZNSt3__110unique_ptrINS_11__hash_nodeINS_17__hash_value_typeIiNS_12basic_stringIcNS_11char_traitsIcEENS_9allocatorIcEEEEEEPvEENS_26__hash_map_node_destructorINS6_ISB_EEEEE5resetB8ue170006EPSB_, symObjAddr: 0x6008, symBinAddr: 0x10000665C, symSize: 0x78 }
  - { offsetInCU: 0x1F80E, offset: 0x1F80E, size: 0x8, addend: 0x0, symName: __ZNSt3__126__hash_map_node_destructorINS_9allocatorINS_11__hash_nodeINS_17__hash_value_typeIiNS_12basic_stringIcNS_11char_traitsIcEENS1_IcEEEEEEPvEEEEEclB8ue170006EPSB_, symObjAddr: 0x6080, symBinAddr: 0x1000066D4, symSize: 0xE4 }
  - { offsetInCU: 0x1F843, offset: 0x1F843, size: 0x8, addend: 0x0, symName: __ZNSt3__116allocator_traitsINS_9allocatorINS_11__hash_nodeINS_17__hash_value_typeIiNS_12basic_stringIcNS_11char_traitsIcEENS1_IcEEEEEEPvEEEEE7destroyB8ue170006IS8_vvEEvRSC_PT_, symObjAddr: 0x6164, symBinAddr: 0x1000067B8, symSize: 0x28 }
  - { offsetInCU: 0x1F87E, offset: 0x1F87E, size: 0x8, addend: 0x0, symName: __ZNSt3__116allocator_traitsINS_9allocatorINS_11__hash_nodeINS_17__hash_value_typeIiNS_12basic_stringIcNS_11char_traitsIcEENS1_IcEEEEEEPvEEEEE7destroyB8ue170006IKivvEEvRSC_PT_, symObjAddr: 0x618C, symBinAddr: 0x1000067E0, symSize: 0x14 }
  - { offsetInCU: 0x1F8B9, offset: 0x1F8B9, size: 0x8, addend: 0x0, symName: __ZN14LocationConfigC1Ev, symObjAddr: 0x61A0, symBinAddr: 0x1000067F4, symSize: 0x2C }
  - { offsetInCU: 0x1F8E5, offset: 0x1F8E5, size: 0x8, addend: 0x0, symName: __ZNSt3__16vectorINS_12basic_stringIcNS_11char_traitsIcEENS_9allocatorIcEEEENS4_IS6_EEE5clearB8ue170006Ev, symObjAddr: 0x61CC, symBinAddr: 0x100006820, symSize: 0x44 }
  - { offsetInCU: 0x1F91A, offset: 0x1F91A, size: 0x8, addend: 0x0, symName: __ZNSt3__16vectorINS_12basic_stringIcNS_11char_traitsIcEENS_9allocatorIcEEEENS4_IS6_EEE9push_backB8ue170006ERKS6_, symObjAddr: 0x6210, symBinAddr: 0x100006864, symSize: 0x6C }
  - { offsetInCU: 0x1F951, offset: 0x1F951, size: 0x8, addend: 0x0, symName: __ZNSt3__113unordered_mapINS_12basic_stringIcNS_11char_traitsIcEENS_9allocatorIcEEEES6_NS_4hashIS6_EENS_8equal_toIS6_EENS4_INS_4pairIKS6_S6_EEEEE6insertB8ue170006ERKSD_, symObjAddr: 0x627C, symBinAddr: 0x1000068D0, symSize: 0x4C }
  - { offsetInCU: 0x1F9A0, offset: 0x1F9A0, size: 0x8, addend: 0x0, symName: __ZNSt3__14pairIKNS_12basic_stringIcNS_11char_traitsIcEENS_9allocatorIcEEEES6_EC1B8ue170006IS6_S6_EERKNS0_IT_T0_EE, symObjAddr: 0x6308, symBinAddr: 0x10000695C, symSize: 0x34 }
  - { offsetInCU: 0x1F9EA, offset: 0x1F9EA, size: 0x8, addend: 0x0, symName: __ZNSt3__14pairIKNS_12basic_stringIcNS_11char_traitsIcEENS_9allocatorIcEEEES6_ED1Ev, symObjAddr: 0x633C, symBinAddr: 0x100006990, symSize: 0x2C }
  - { offsetInCU: 0x1FA16, offset: 0x1FA16, size: 0x8, addend: 0x0, symName: __ZNSt3__14pairINS_12basic_stringIcNS_11char_traitsIcEENS_9allocatorIcEEEES6_ED1Ev, symObjAddr: 0x6368, symBinAddr: 0x1000069BC, symSize: 0x2C }
  - { offsetInCU: 0x1FA42, offset: 0x1FA42, size: 0x8, addend: 0x0, symName: __ZN14LocationConfigC2Ev, symObjAddr: 0x6394, symBinAddr: 0x1000069E8, symSize: 0x340 }
  - { offsetInCU: 0x1FA6E, offset: 0x1FA6E, size: 0x8, addend: 0x0, symName: __ZNSt3__16vectorINS_12basic_stringIcNS_11char_traitsIcEENS_9allocatorIcEEEENS4_IS6_EEEC1B8ue170006Ev, symObjAddr: 0x66D4, symBinAddr: 0x100006D28, symSize: 0x2C }
  - { offsetInCU: 0x1FA98, offset: 0x1FA98, size: 0x8, addend: 0x0, symName: __ZNSt3__113unordered_mapINS_12basic_stringIcNS_11char_traitsIcEENS_9allocatorIcEEEES6_NS_4hashIS6_EENS_8equal_toIS6_EENS4_INS_4pairIKS6_S6_EEEEEC1B8ue170006Ev, symObjAddr: 0x6700, symBinAddr: 0x100006D54, symSize: 0x2C }
  - { offsetInCU: 0x1FAC2, offset: 0x1FAC2, size: 0x8, addend: 0x0, symName: __ZNSt3__16vectorIiNS_9allocatorIiEEEC1B8ue170006Ev, symObjAddr: 0x672C, symBinAddr: 0x100006D80, symSize: 0x2C }
  - { offsetInCU: 0x1FAEC, offset: 0x1FAEC, size: 0x8, addend: 0x0, symName: __ZNSt3__16vectorIiNS_9allocatorIiEEED1B8ue170006Ev, symObjAddr: 0x6758, symBinAddr: 0x100006DAC, symSize: 0x2C }
  - { offsetInCU: 0x1FB16, offset: 0x1FB16, size: 0x8, addend: 0x0, symName: __ZNSt3__113unordered_mapINS_12basic_stringIcNS_11char_traitsIcEENS_9allocatorIcEEEES6_NS_4hashIS6_EENS_8equal_toIS6_EENS4_INS_4pairIKS6_S6_EEEEED1B8ue170006Ev, symObjAddr: 0x6784, symBinAddr: 0x100006DD8, symSize: 0x2C }
  - { offsetInCU: 0x1FB40, offset: 0x1FB40, size: 0x8, addend: 0x0, symName: __ZNSt3__16vectorINS_12basic_stringIcNS_11char_traitsIcEENS_9allocatorIcEEEENS4_IS6_EEED1B8ue170006Ev, symObjAddr: 0x67B0, symBinAddr: 0x100006E04, symSize: 0x2C }
  - { offsetInCU: 0x1FB6A, offset: 0x1FB6A, size: 0x8, addend: 0x0, symName: __ZNSt3__16vectorINS_12basic_stringIcNS_11char_traitsIcEENS_9allocatorIcEEEENS4_IS6_EEEC2B8ue170006Ev, symObjAddr: 0x67DC, symBinAddr: 0x100006E30, symSize: 0x44 }
  - { offsetInCU: 0x1FB94, offset: 0x1FB94, size: 0x8, addend: 0x0, symName: __ZNSt3__117__compressed_pairIPNS_12basic_stringIcNS_11char_traitsIcEENS_9allocatorIcEEEENS4_IS6_EEEC1B8ue170006IDnNS_18__default_init_tagEEEOT_OT0_, symObjAddr: 0x6820, symBinAddr: 0x100006E74, symSize: 0x3C }
  - { offsetInCU: 0x1FBEC, offset: 0x1FBEC, size: 0x8, addend: 0x0, symName: __ZNSt3__117__compressed_pairIPNS_12basic_stringIcNS_11char_traitsIcEENS_9allocatorIcEEEENS4_IS6_EEEC2B8ue170006IDnNS_18__default_init_tagEEEOT_OT0_, symObjAddr: 0x685C, symBinAddr: 0x100006EB0, symSize: 0x40 }
  - { offsetInCU: 0x1FC44, offset: 0x1FC44, size: 0x8, addend: 0x0, symName: __ZNSt3__122__compressed_pair_elemIPNS_12basic_stringIcNS_11char_traitsIcEENS_9allocatorIcEEEELi0ELb0EEC2B8ue170006IDnvEEOT_, symObjAddr: 0x689C, symBinAddr: 0x100006EF0, symSize: 0x1C }
  - { offsetInCU: 0x1FC86, offset: 0x1FC86, size: 0x8, addend: 0x0, symName: __ZNSt3__122__compressed_pair_elemINS_9allocatorINS_12basic_stringIcNS_11char_traitsIcEENS1_IcEEEEEELi1ELb1EEC2B8ue170006ENS_18__default_init_tagE, symObjAddr: 0x68B8, symBinAddr: 0x100006F0C, symSize: 0x2C }
  - { offsetInCU: 0x1FCBA, offset: 0x1FCBA, size: 0x8, addend: 0x0, symName: __ZNSt3__19allocatorINS_12basic_stringIcNS_11char_traitsIcEENS0_IcEEEEEC2B8ue170006Ev, symObjAddr: 0x68E4, symBinAddr: 0x100006F38, symSize: 0x2C }
  - { offsetInCU: 0x1FCE4, offset: 0x1FCE4, size: 0x8, addend: 0x0, symName: __ZNSt3__116__non_trivial_ifILb1ENS_9allocatorINS_12basic_stringIcNS_11char_traitsIcEENS1_IcEEEEEEEC2B8ue170006Ev, symObjAddr: 0x6910, symBinAddr: 0x100006F64, symSize: 0x14 }
  - { offsetInCU: 0x1FD0E, offset: 0x1FD0E, size: 0x8, addend: 0x0, symName: __ZNSt3__113unordered_mapINS_12basic_stringIcNS_11char_traitsIcEENS_9allocatorIcEEEES6_NS_4hashIS6_EENS_8equal_toIS6_EENS4_INS_4pairIKS6_S6_EEEEEC2B8ue170006Ev, symObjAddr: 0x6924, symBinAddr: 0x100006F78, symSize: 0x2C }
  - { offsetInCU: 0x1FD38, offset: 0x1FD38, size: 0x8, addend: 0x0, symName: __ZNSt3__112__hash_tableINS_17__hash_value_typeINS_12basic_stringIcNS_11char_traitsIcEENS_9allocatorIcEEEES7_EENS_22__unordered_map_hasherIS7_S8_NS_4hashIS7_EENS_8equal_toIS7_EELb1EEENS_21__unordered_map_equalIS7_S8_SD_SB_Lb1EEENS5_IS8_EEEC1Ev, symObjAddr: 0x6950, symBinAddr: 0x100006FA4, symSize: 0x2C }
  - { offsetInCU: 0x1FD64, offset: 0x1FD64, size: 0x8, addend: 0x0, symName: __ZNSt3__112__hash_tableINS_17__hash_value_typeINS_12basic_stringIcNS_11char_traitsIcEENS_9allocatorIcEEEES7_EENS_22__unordered_map_hasherIS7_S8_NS_4hashIS7_EENS_8equal_toIS7_EELb1EEENS_21__unordered_map_equalIS7_S8_SD_SB_Lb1EEENS5_IS8_EEEC2Ev, symObjAddr: 0x697C, symBinAddr: 0x100006FD0, symSize: 0xA4 }
  - { offsetInCU: 0x1FD90, offset: 0x1FD90, size: 0x8, addend: 0x0, symName: __ZNSt3__110unique_ptrIA_PNS_16__hash_node_baseIPNS_11__hash_nodeINS_17__hash_value_typeINS_12basic_stringIcNS_11char_traitsIcEENS_9allocatorIcEEEES9_EEPvEEEENS_25__bucket_list_deallocatorINS7_ISF_EEEEEC1B8ue170006ILb1EvEEv, symObjAddr: 0x6A20, symBinAddr: 0x100007074, symSize: 0x2C }
  - { offsetInCU: 0x1FDC5, offset: 0x1FDC5, size: 0x8, addend: 0x0, symName: __ZNSt3__117__compressed_pairINS_16__hash_node_baseIPNS_11__hash_nodeINS_17__hash_value_typeINS_12basic_stringIcNS_11char_traitsIcEENS_9allocatorIcEEEES9_EEPvEEEENS7_ISC_EEEC1B8ue170006ILb1EvEEv, symObjAddr: 0x6A4C, symBinAddr: 0x1000070A0, symSize: 0x2C }
  - { offsetInCU: 0x1FDFA, offset: 0x1FDFA, size: 0x8, addend: 0x0, symName: __ZNSt3__117__compressed_pairImNS_22__unordered_map_hasherINS_12basic_stringIcNS_11char_traitsIcEENS_9allocatorIcEEEENS_17__hash_value_typeIS7_S7_EENS_4hashIS7_EENS_8equal_toIS7_EELb1EEEEC1B8ue170006IiNS_18__default_init_tagEEEOT_OT0_, symObjAddr: 0x6A78, symBinAddr: 0x1000070CC, symSize: 0x3C }
  - { offsetInCU: 0x1FE52, offset: 0x1FE52, size: 0x8, addend: 0x0, symName: __ZNSt3__117__compressed_pairIfNS_21__unordered_map_equalINS_12basic_stringIcNS_11char_traitsIcEENS_9allocatorIcEEEENS_17__hash_value_typeIS7_S7_EENS_8equal_toIS7_EENS_4hashIS7_EELb1EEEEC1B8ue170006IfNS_18__default_init_tagEEEOT_OT0_, symObjAddr: 0x6AB4, symBinAddr: 0x100007108, symSize: 0x3C }
  - { offsetInCU: 0x1FEAA, offset: 0x1FEAA, size: 0x8, addend: 0x0, symName: __ZNSt3__110unique_ptrIA_PNS_16__hash_node_baseIPNS_11__hash_nodeINS_17__hash_value_typeINS_12basic_stringIcNS_11char_traitsIcEENS_9allocatorIcEEEES9_EEPvEEEENS_25__bucket_list_deallocatorINS7_ISF_EEEEED1B8ue170006Ev, symObjAddr: 0x6AF0, symBinAddr: 0x100007144, symSize: 0x2C }
  - { offsetInCU: 0x1FED4, offset: 0x1FED4, size: 0x8, addend: 0x0, symName: __ZNSt3__110unique_ptrIA_PNS_16__hash_node_baseIPNS_11__hash_nodeINS_17__hash_value_typeINS_12basic_stringIcNS_11char_traitsIcEENS_9allocatorIcEEEES9_EEPvEEEENS_25__bucket_list_deallocatorINS7_ISF_EEEEEC2B8ue170006ILb1EvEEv, symObjAddr: 0x6B1C, symBinAddr: 0x100007170, symSize: 0x50 }
  - { offsetInCU: 0x1FF09, offset: 0x1FF09, size: 0x8, addend: 0x0, symName: __ZNSt3__117__compressed_pairIPPNS_16__hash_node_baseIPNS_11__hash_nodeINS_17__hash_value_typeINS_12basic_stringIcNS_11char_traitsIcEENS_9allocatorIcEEEES9_EEPvEEEENS_25__bucket_list_deallocatorINS7_ISF_EEEEEC1B8ue170006INS_16__value_init_tagESM_EEOT_OT0_, symObjAddr: 0x6B6C, symBinAddr: 0x1000071C0, symSize: 0x3C }
  - { offsetInCU: 0x1FF61, offset: 0x1FF61, size: 0x8, addend: 0x0, symName: __ZNSt3__117__compressed_pairIPPNS_16__hash_node_baseIPNS_11__hash_nodeINS_17__hash_value_typeINS_12basic_stringIcNS_11char_traitsIcEENS_9allocatorIcEEEES9_EEPvEEEENS_25__bucket_list_deallocatorINS7_ISF_EEEEEC2B8ue170006INS_16__value_init_tagESM_EEOT_OT0_, symObjAddr: 0x6BA8, symBinAddr: 0x1000071FC, symSize: 0x40 }
  - { offsetInCU: 0x1FFB9, offset: 0x1FFB9, size: 0x8, addend: 0x0, symName: __ZNSt3__122__compressed_pair_elemIPPNS_16__hash_node_baseIPNS_11__hash_nodeINS_17__hash_value_typeINS_12basic_stringIcNS_11char_traitsIcEENS_9allocatorIcEEEES9_EEPvEEEELi0ELb0EEC2B8ue170006ENS_16__value_init_tagE, symObjAddr: 0x6BE8, symBinAddr: 0x10000723C, symSize: 0x18 }
  - { offsetInCU: 0x1FFED, offset: 0x1FFED, size: 0x8, addend: 0x0, symName: __ZNSt3__122__compressed_pair_elemINS_25__bucket_list_deallocatorINS_9allocatorIPNS_16__hash_node_baseIPNS_11__hash_nodeINS_17__hash_value_typeINS_12basic_stringIcNS_11char_traitsIcEENS2_IcEEEESA_EEPvEEEEEEEELi1ELb0EEC2B8ue170006ENS_16__value_init_tagE, symObjAddr: 0x6C00, symBinAddr: 0x100007254, symSize: 0x2C }
  - { offsetInCU: 0x20021, offset: 0x20021, size: 0x8, addend: 0x0, symName: __ZNSt3__125__bucket_list_deallocatorINS_9allocatorIPNS_16__hash_node_baseIPNS_11__hash_nodeINS_17__hash_value_typeINS_12basic_stringIcNS_11char_traitsIcEENS1_IcEEEES9_EEPvEEEEEEEC1B8ue170006Ev, symObjAddr: 0x6C2C, symBinAddr: 0x100007280, symSize: 0x2C }
  - { offsetInCU: 0x2004B, offset: 0x2004B, size: 0x8, addend: 0x0, symName: __ZNSt3__125__bucket_list_deallocatorINS_9allocatorIPNS_16__hash_node_baseIPNS_11__hash_nodeINS_17__hash_value_typeINS_12basic_stringIcNS_11char_traitsIcEENS1_IcEEEES9_EEPvEEEEEEEC2B8ue170006Ev, symObjAddr: 0x6C58, symBinAddr: 0x1000072AC, symSize: 0x38 }
  - { offsetInCU: 0x20075, offset: 0x20075, size: 0x8, addend: 0x0, symName: __ZNSt3__117__compressed_pairImNS_9allocatorIPNS_16__hash_node_baseIPNS_11__hash_nodeINS_17__hash_value_typeINS_12basic_stringIcNS_11char_traitsIcEENS1_IcEEEES9_EEPvEEEEEEEC1B8ue170006IiNS_18__default_init_tagEEEOT_OT0_, symObjAddr: 0x6C90, symBinAddr: 0x1000072E4, symSize: 0x3C }
  - { offsetInCU: 0x200CD, offset: 0x200CD, size: 0x8, addend: 0x0, symName: __ZNSt3__117__compressed_pairImNS_9allocatorIPNS_16__hash_node_baseIPNS_11__hash_nodeINS_17__hash_value_typeINS_12basic_stringIcNS_11char_traitsIcEENS1_IcEEEES9_EEPvEEEEEEEC2B8ue170006IiNS_18__default_init_tagEEEOT_OT0_, symObjAddr: 0x6CCC, symBinAddr: 0x100007320, symSize: 0x40 }
  - { offsetInCU: 0x20125, offset: 0x20125, size: 0x8, addend: 0x0, symName: __ZNSt3__122__compressed_pair_elemINS_9allocatorIPNS_16__hash_node_baseIPNS_11__hash_nodeINS_17__hash_value_typeINS_12basic_stringIcNS_11char_traitsIcEENS1_IcEEEES9_EEPvEEEEEELi1ELb1EEC2B8ue170006ENS_18__default_init_tagE, symObjAddr: 0x6D0C, symBinAddr: 0x100007360, symSize: 0x2C }
  - { offsetInCU: 0x20159, offset: 0x20159, size: 0x8, addend: 0x0, symName: __ZNSt3__19allocatorIPNS_16__hash_node_baseIPNS_11__hash_nodeINS_17__hash_value_typeINS_12basic_stringIcNS_11char_traitsIcEENS0_IcEEEES8_EEPvEEEEEC2B8ue170006Ev, symObjAddr: 0x6D38, symBinAddr: 0x10000738C, symSize: 0x2C }
  - { offsetInCU: 0x20183, offset: 0x20183, size: 0x8, addend: 0x0, symName: __ZNSt3__116__non_trivial_ifILb1ENS_9allocatorIPNS_16__hash_node_baseIPNS_11__hash_nodeINS_17__hash_value_typeINS_12basic_stringIcNS_11char_traitsIcEENS1_IcEEEES9_EEPvEEEEEEEC2B8ue170006Ev, symObjAddr: 0x6D64, symBinAddr: 0x1000073B8, symSize: 0x14 }
  - { offsetInCU: 0x201AD, offset: 0x201AD, size: 0x8, addend: 0x0, symName: __ZNSt3__117__compressed_pairINS_16__hash_node_baseIPNS_11__hash_nodeINS_17__hash_value_typeINS_12basic_stringIcNS_11char_traitsIcEENS_9allocatorIcEEEES9_EEPvEEEENS7_ISC_EEEC2B8ue170006ILb1EvEEv, symObjAddr: 0x6D78, symBinAddr: 0x1000073CC, symSize: 0x34 }
  - { offsetInCU: 0x201E2, offset: 0x201E2, size: 0x8, addend: 0x0, symName: __ZNSt3__122__compressed_pair_elemINS_16__hash_node_baseIPNS_11__hash_nodeINS_17__hash_value_typeINS_12basic_stringIcNS_11char_traitsIcEENS_9allocatorIcEEEES9_EEPvEEEELi0ELb0EEC2B8ue170006ENS_16__value_init_tagE, symObjAddr: 0x6DAC, symBinAddr: 0x100007400, symSize: 0x2C }
  - { offsetInCU: 0x20216, offset: 0x20216, size: 0x8, addend: 0x0, symName: __ZNSt3__122__compressed_pair_elemINS_9allocatorINS_11__hash_nodeINS_17__hash_value_typeINS_12basic_stringIcNS_11char_traitsIcEENS1_IcEEEES8_EEPvEEEELi1ELb1EEC2B8ue170006ENS_16__value_init_tagE, symObjAddr: 0x6DD8, symBinAddr: 0x10000742C, symSize: 0x2C }
  - { offsetInCU: 0x2024A, offset: 0x2024A, size: 0x8, addend: 0x0, symName: __ZNSt3__116__hash_node_baseIPNS_11__hash_nodeINS_17__hash_value_typeINS_12basic_stringIcNS_11char_traitsIcEENS_9allocatorIcEEEES8_EEPvEEEC1B8ue170006Ev, symObjAddr: 0x6E04, symBinAddr: 0x100007458, symSize: 0x2C }
  - { offsetInCU: 0x20274, offset: 0x20274, size: 0x8, addend: 0x0, symName: __ZNSt3__116__hash_node_baseIPNS_11__hash_nodeINS_17__hash_value_typeINS_12basic_stringIcNS_11char_traitsIcEENS_9allocatorIcEEEES8_EEPvEEEC2B8ue170006Ev, symObjAddr: 0x6E30, symBinAddr: 0x100007484, symSize: 0x18 }
  - { offsetInCU: 0x2029E, offset: 0x2029E, size: 0x8, addend: 0x0, symName: __ZNSt3__19allocatorINS_11__hash_nodeINS_17__hash_value_typeINS_12basic_stringIcNS_11char_traitsIcEENS0_IcEEEES7_EEPvEEEC2B8ue170006Ev, symObjAddr: 0x6E48, symBinAddr: 0x10000749C, symSize: 0x2C }
  - { offsetInCU: 0x202C8, offset: 0x202C8, size: 0x8, addend: 0x0, symName: __ZNSt3__116__non_trivial_ifILb1ENS_9allocatorINS_11__hash_nodeINS_17__hash_value_typeINS_12basic_stringIcNS_11char_traitsIcEENS1_IcEEEES8_EEPvEEEEEC2B8ue170006Ev, symObjAddr: 0x6E74, symBinAddr: 0x1000074C8, symSize: 0x14 }
  - { offsetInCU: 0x202F2, offset: 0x202F2, size: 0x8, addend: 0x0, symName: __ZNSt3__117__compressed_pairImNS_22__unordered_map_hasherINS_12basic_stringIcNS_11char_traitsIcEENS_9allocatorIcEEEENS_17__hash_value_typeIS7_S7_EENS_4hashIS7_EENS_8equal_toIS7_EELb1EEEEC2B8ue170006IiNS_18__default_init_tagEEEOT_OT0_, symObjAddr: 0x6E88, symBinAddr: 0x1000074DC, symSize: 0x40 }
  - { offsetInCU: 0x2034A, offset: 0x2034A, size: 0x8, addend: 0x0, symName: __ZNSt3__122__compressed_pair_elemINS_22__unordered_map_hasherINS_12basic_stringIcNS_11char_traitsIcEENS_9allocatorIcEEEENS_17__hash_value_typeIS7_S7_EENS_4hashIS7_EENS_8equal_toIS7_EELb1EEELi1ELb1EEC2B8ue170006ENS_18__default_init_tagE, symObjAddr: 0x6EC8, symBinAddr: 0x10000751C, symSize: 0x2C }
  - { offsetInCU: 0x2037E, offset: 0x2037E, size: 0x8, addend: 0x0, symName: __ZNSt3__122__unordered_map_hasherINS_12basic_stringIcNS_11char_traitsIcEENS_9allocatorIcEEEENS_17__hash_value_typeIS6_S6_EENS_4hashIS6_EENS_8equal_toIS6_EELb1EEC2B8ue170006Ev, symObjAddr: 0x6EF4, symBinAddr: 0x100007548, symSize: 0x14 }
  - { offsetInCU: 0x203A8, offset: 0x203A8, size: 0x8, addend: 0x0, symName: __ZNSt3__117__compressed_pairIfNS_21__unordered_map_equalINS_12basic_stringIcNS_11char_traitsIcEENS_9allocatorIcEEEENS_17__hash_value_typeIS7_S7_EENS_8equal_toIS7_EENS_4hashIS7_EELb1EEEEC2B8ue170006IfNS_18__default_init_tagEEEOT_OT0_, symObjAddr: 0x6F08, symBinAddr: 0x10000755C, symSize: 0x40 }
  - { offsetInCU: 0x20400, offset: 0x20400, size: 0x8, addend: 0x0, symName: __ZNSt3__122__compressed_pair_elemINS_21__unordered_map_equalINS_12basic_stringIcNS_11char_traitsIcEENS_9allocatorIcEEEENS_17__hash_value_typeIS7_S7_EENS_8equal_toIS7_EENS_4hashIS7_EELb1EEELi1ELb1EEC2B8ue170006ENS_18__default_init_tagE, symObjAddr: 0x6F48, symBinAddr: 0x10000759C, symSize: 0x2C }
  - { offsetInCU: 0x20434, offset: 0x20434, size: 0x8, addend: 0x0, symName: __ZNSt3__121__unordered_map_equalINS_12basic_stringIcNS_11char_traitsIcEENS_9allocatorIcEEEENS_17__hash_value_typeIS6_S6_EENS_8equal_toIS6_EENS_4hashIS6_EELb1EEC2B8ue170006Ev, symObjAddr: 0x6F74, symBinAddr: 0x1000075C8, symSize: 0x14 }
  - { offsetInCU: 0x2045E, offset: 0x2045E, size: 0x8, addend: 0x0, symName: __ZNSt3__110unique_ptrIA_PNS_16__hash_node_baseIPNS_11__hash_nodeINS_17__hash_value_typeINS_12basic_stringIcNS_11char_traitsIcEENS_9allocatorIcEEEES9_EEPvEEEENS_25__bucket_list_deallocatorINS7_ISF_EEEEED2B8ue170006Ev, symObjAddr: 0x6F88, symBinAddr: 0x1000075DC, symSize: 0x30 }
  - { offsetInCU: 0x20488, offset: 0x20488, size: 0x8, addend: 0x0, symName: __ZNSt3__110unique_ptrIA_PNS_16__hash_node_baseIPNS_11__hash_nodeINS_17__hash_value_typeINS_12basic_stringIcNS_11char_traitsIcEENS_9allocatorIcEEEES9_EEPvEEEENS_25__bucket_list_deallocatorINS7_ISF_EEEEE5resetB8ue170006EDn, symObjAddr: 0x6FB8, symBinAddr: 0x10000760C, symSize: 0x6C }
  - { offsetInCU: 0x204C9, offset: 0x204C9, size: 0x8, addend: 0x0, symName: __ZNSt3__117__compressed_pairIPPNS_16__hash_node_baseIPNS_11__hash_nodeINS_17__hash_value_typeINS_12basic_stringIcNS_11char_traitsIcEENS_9allocatorIcEEEES9_EEPvEEEENS_25__bucket_list_deallocatorINS7_ISF_EEEEE5firstB8ue170006Ev, symObjAddr: 0x7024, symBinAddr: 0x100007678, symSize: 0x24 }
  - { offsetInCU: 0x204EF, offset: 0x204EF, size: 0x8, addend: 0x0, symName: __ZNSt3__117__compressed_pairIPPNS_16__hash_node_baseIPNS_11__hash_nodeINS_17__hash_value_typeINS_12basic_stringIcNS_11char_traitsIcEENS_9allocatorIcEEEES9_EEPvEEEENS_25__bucket_list_deallocatorINS7_ISF_EEEEE6secondB8ue170006Ev, symObjAddr: 0x7048, symBinAddr: 0x10000769C, symSize: 0x28 }
  - { offsetInCU: 0x20515, offset: 0x20515, size: 0x8, addend: 0x0, symName: __ZNSt3__125__bucket_list_deallocatorINS_9allocatorIPNS_16__hash_node_baseIPNS_11__hash_nodeINS_17__hash_value_typeINS_12basic_stringIcNS_11char_traitsIcEENS1_IcEEEES9_EEPvEEEEEEEclB8ue170006EPSF_, symObjAddr: 0x7070, symBinAddr: 0x1000076C4, symSize: 0x58 }
  - { offsetInCU: 0x2054A, offset: 0x2054A, size: 0x8, addend: 0x0, symName: __ZNSt3__122__compressed_pair_elemIPPNS_16__hash_node_baseIPNS_11__hash_nodeINS_17__hash_value_typeINS_12basic_stringIcNS_11char_traitsIcEENS_9allocatorIcEEEES9_EEPvEEEELi0ELb0EE5__getB8ue170006Ev, symObjAddr: 0x70C8, symBinAddr: 0x10000771C, symSize: 0x14 }
  - { offsetInCU: 0x20570, offset: 0x20570, size: 0x8, addend: 0x0, symName: __ZNSt3__122__compressed_pair_elemINS_25__bucket_list_deallocatorINS_9allocatorIPNS_16__hash_node_baseIPNS_11__hash_nodeINS_17__hash_value_typeINS_12basic_stringIcNS_11char_traitsIcEENS2_IcEEEESA_EEPvEEEEEEEELi1ELb0EE5__getB8ue170006Ev, symObjAddr: 0x70DC, symBinAddr: 0x100007730, symSize: 0x14 }
  - { offsetInCU: 0x20596, offset: 0x20596, size: 0x8, addend: 0x0, symName: __ZNSt3__116allocator_traitsINS_9allocatorIPNS_16__hash_node_baseIPNS_11__hash_nodeINS_17__hash_value_typeINS_12basic_stringIcNS_11char_traitsIcEENS1_IcEEEES9_EEPvEEEEEEE10deallocateB8ue170006ERSG_PSF_m, symObjAddr: 0x70F0, symBinAddr: 0x100007744, symSize: 0x34 }
  - { offsetInCU: 0x205D8, offset: 0x205D8, size: 0x8, addend: 0x0, symName: __ZNSt3__125__bucket_list_deallocatorINS_9allocatorIPNS_16__hash_node_baseIPNS_11__hash_nodeINS_17__hash_value_typeINS_12basic_stringIcNS_11char_traitsIcEENS1_IcEEEES9_EEPvEEEEEEE7__allocB8ue170006Ev, symObjAddr: 0x7124, symBinAddr: 0x100007778, symSize: 0x24 }
  - { offsetInCU: 0x205FE, offset: 0x205FE, size: 0x8, addend: 0x0, symName: __ZNSt3__125__bucket_list_deallocatorINS_9allocatorIPNS_16__hash_node_baseIPNS_11__hash_nodeINS_17__hash_value_typeINS_12basic_stringIcNS_11char_traitsIcEENS1_IcEEEES9_EEPvEEEEEEE4sizeB8ue170006Ev, symObjAddr: 0x7148, symBinAddr: 0x10000779C, symSize: 0x24 }
  - { offsetInCU: 0x20624, offset: 0x20624, size: 0x8, addend: 0x0, symName: __ZNSt3__19allocatorIPNS_16__hash_node_baseIPNS_11__hash_nodeINS_17__hash_value_typeINS_12basic_stringIcNS_11char_traitsIcEENS0_IcEEEES8_EEPvEEEEE10deallocateB8ue170006EPSE_m, symObjAddr: 0x716C, symBinAddr: 0x1000077C0, symSize: 0x70 }
  - { offsetInCU: 0x20666, offset: 0x20666, size: 0x8, addend: 0x0, symName: __ZNSt3__117__compressed_pairImNS_9allocatorIPNS_16__hash_node_baseIPNS_11__hash_nodeINS_17__hash_value_typeINS_12basic_stringIcNS_11char_traitsIcEENS1_IcEEEES9_EEPvEEEEEEE6secondB8ue170006Ev, symObjAddr: 0x71DC, symBinAddr: 0x100007830, symSize: 0x24 }
  - { offsetInCU: 0x2068C, offset: 0x2068C, size: 0x8, addend: 0x0, symName: __ZNSt3__122__compressed_pair_elemINS_9allocatorIPNS_16__hash_node_baseIPNS_11__hash_nodeINS_17__hash_value_typeINS_12basic_stringIcNS_11char_traitsIcEENS1_IcEEEES9_EEPvEEEEEELi1ELb1EE5__getB8ue170006Ev, symObjAddr: 0x7200, symBinAddr: 0x100007854, symSize: 0x14 }
  - { offsetInCU: 0x206B2, offset: 0x206B2, size: 0x8, addend: 0x0, symName: __ZNSt3__117__compressed_pairImNS_9allocatorIPNS_16__hash_node_baseIPNS_11__hash_nodeINS_17__hash_value_typeINS_12basic_stringIcNS_11char_traitsIcEENS1_IcEEEES9_EEPvEEEEEEE5firstB8ue170006Ev, symObjAddr: 0x7214, symBinAddr: 0x100007868, symSize: 0x24 }
  - { offsetInCU: 0x206D8, offset: 0x206D8, size: 0x8, addend: 0x0, symName: __ZNSt3__16vectorIiNS_9allocatorIiEEEC2B8ue170006Ev, symObjAddr: 0x7238, symBinAddr: 0x10000788C, symSize: 0x44 }
  - { offsetInCU: 0x20702, offset: 0x20702, size: 0x8, addend: 0x0, symName: __ZNSt3__117__compressed_pairIPiNS_9allocatorIiEEEC1B8ue170006IDnNS_18__default_init_tagEEEOT_OT0_, symObjAddr: 0x727C, symBinAddr: 0x1000078D0, symSize: 0x3C }
  - { offsetInCU: 0x2075A, offset: 0x2075A, size: 0x8, addend: 0x0, symName: __ZNSt3__117__compressed_pairIPiNS_9allocatorIiEEEC2B8ue170006IDnNS_18__default_init_tagEEEOT_OT0_, symObjAddr: 0x72B8, symBinAddr: 0x10000790C, symSize: 0x40 }
  - { offsetInCU: 0x207B2, offset: 0x207B2, size: 0x8, addend: 0x0, symName: __ZNSt3__122__compressed_pair_elemIPiLi0ELb0EEC2B8ue170006IDnvEEOT_, symObjAddr: 0x72F8, symBinAddr: 0x10000794C, symSize: 0x1C }
  - { offsetInCU: 0x207F4, offset: 0x207F4, size: 0x8, addend: 0x0, symName: __ZNSt3__122__compressed_pair_elemINS_9allocatorIiEELi1ELb1EEC2B8ue170006ENS_18__default_init_tagE, symObjAddr: 0x7314, symBinAddr: 0x100007968, symSize: 0x2C }
  - { offsetInCU: 0x20828, offset: 0x20828, size: 0x8, addend: 0x0, symName: __ZNSt3__19allocatorIiEC2B8ue170006Ev, symObjAddr: 0x7340, symBinAddr: 0x100007994, symSize: 0x2C }
  - { offsetInCU: 0x20852, offset: 0x20852, size: 0x8, addend: 0x0, symName: __ZNSt3__116__non_trivial_ifILb1ENS_9allocatorIiEEEC2B8ue170006Ev, symObjAddr: 0x736C, symBinAddr: 0x1000079C0, symSize: 0x14 }
  - { offsetInCU: 0x2087C, offset: 0x2087C, size: 0x8, addend: 0x0, symName: __ZNSt3__16vectorIiNS_9allocatorIiEEED2B8ue170006Ev, symObjAddr: 0x7380, symBinAddr: 0x1000079D4, symSize: 0x3C }
  - { offsetInCU: 0x208A6, offset: 0x208A6, size: 0x8, addend: 0x0, symName: __ZNSt3__16vectorIiNS_9allocatorIiEEE16__destroy_vectorC1B8ue170006ERS3_, symObjAddr: 0x73BC, symBinAddr: 0x100007A10, symSize: 0x34 }
  - { offsetInCU: 0x208DF, offset: 0x208DF, size: 0x8, addend: 0x0, symName: __ZNSt3__16vectorIiNS_9allocatorIiEEE16__destroy_vectorclB8ue170006Ev, symObjAddr: 0x73F0, symBinAddr: 0x100007A44, symSize: 0x90 }
  - { offsetInCU: 0x20905, offset: 0x20905, size: 0x8, addend: 0x0, symName: __ZNSt3__16vectorIiNS_9allocatorIiEEE16__destroy_vectorC2B8ue170006ERS3_, symObjAddr: 0x7480, symBinAddr: 0x100007AD4, symSize: 0x20 }
  - { offsetInCU: 0x2093E, offset: 0x2093E, size: 0x8, addend: 0x0, symName: __ZNSt3__16vectorIiNS_9allocatorIiEEE7__clearB8ue170006Ev, symObjAddr: 0x74A0, symBinAddr: 0x100007AF4, symSize: 0x28 }
  - { offsetInCU: 0x20964, offset: 0x20964, size: 0x8, addend: 0x0, symName: __ZNKSt3__16vectorIiNS_9allocatorIiEEE17__annotate_deleteB8ue170006Ev, symObjAddr: 0x74C8, symBinAddr: 0x100007B1C, symSize: 0xB8 }
  - { offsetInCU: 0x2098A, offset: 0x2098A, size: 0x8, addend: 0x0, symName: __ZNSt3__116allocator_traitsINS_9allocatorIiEEE10deallocateB8ue170006ERS2_Pim, symObjAddr: 0x7580, symBinAddr: 0x100007BD4, symSize: 0x34 }
  - { offsetInCU: 0x209CC, offset: 0x209CC, size: 0x8, addend: 0x0, symName: __ZNSt3__16vectorIiNS_9allocatorIiEEE7__allocB8ue170006Ev, symObjAddr: 0x75B4, symBinAddr: 0x100007C08, symSize: 0x28 }
  - { offsetInCU: 0x209F2, offset: 0x209F2, size: 0x8, addend: 0x0, symName: __ZNKSt3__16vectorIiNS_9allocatorIiEEE8capacityB8ue170006Ev, symObjAddr: 0x75DC, symBinAddr: 0x100007C30, symSize: 0x40 }
  - { offsetInCU: 0x20A18, offset: 0x20A18, size: 0x8, addend: 0x0, symName: __ZNSt3__16vectorIiNS_9allocatorIiEEE22__base_destruct_at_endB8ue170006EPi, symObjAddr: 0x761C, symBinAddr: 0x100007C70, symSize: 0xA0 }
  - { offsetInCU: 0x20A5C, offset: 0x20A5C, size: 0x8, addend: 0x0, symName: __ZNSt3__116allocator_traitsINS_9allocatorIiEEE7destroyB8ue170006IivEEvRS2_PT_, symObjAddr: 0x76BC, symBinAddr: 0x100007D10, symSize: 0x2C }
  - { offsetInCU: 0x20A99, offset: 0x20A99, size: 0x8, addend: 0x0, symName: __ZNSt3__19allocatorIiE7destroyB8ue170006EPi, symObjAddr: 0x76FC, symBinAddr: 0x100007D50, symSize: 0x14 }
  - { offsetInCU: 0x20ACD, offset: 0x20ACD, size: 0x8, addend: 0x0, symName: __ZNKSt3__16vectorIiNS_9allocatorIiEEE31__annotate_contiguous_containerB8ue170006EPKvS5_S5_S5_, symObjAddr: 0x7710, symBinAddr: 0x100007D64, symSize: 0x20 }
  - { offsetInCU: 0x20B23, offset: 0x20B23, size: 0x8, addend: 0x0, symName: __ZNKSt3__16vectorIiNS_9allocatorIiEEE4dataB8ue170006Ev, symObjAddr: 0x7730, symBinAddr: 0x100007D84, symSize: 0x28 }
  - { offsetInCU: 0x20B49, offset: 0x20B49, size: 0x8, addend: 0x0, symName: __ZNKSt3__16vectorIiNS_9allocatorIiEEE4sizeB8ue170006Ev, symObjAddr: 0x7758, symBinAddr: 0x100007DAC, symSize: 0x28 }
  - { offsetInCU: 0x20B6F, offset: 0x20B6F, size: 0x8, addend: 0x0, symName: __ZNSt3__19allocatorIiE10deallocateB8ue170006EPim, symObjAddr: 0x7780, symBinAddr: 0x100007DD4, symSize: 0x70 }
  - { offsetInCU: 0x20BB1, offset: 0x20BB1, size: 0x8, addend: 0x0, symName: __ZNSt3__117__compressed_pairIPiNS_9allocatorIiEEE6secondB8ue170006Ev, symObjAddr: 0x77F0, symBinAddr: 0x100007E44, symSize: 0x24 }
  - { offsetInCU: 0x20BD7, offset: 0x20BD7, size: 0x8, addend: 0x0, symName: __ZNSt3__122__compressed_pair_elemINS_9allocatorIiEELi1ELb1EE5__getB8ue170006Ev, symObjAddr: 0x7814, symBinAddr: 0x100007E68, symSize: 0x14 }
  - { offsetInCU: 0x20BFD, offset: 0x20BFD, size: 0x8, addend: 0x0, symName: __ZNKSt3__16vectorIiNS_9allocatorIiEEE9__end_capB8ue170006Ev, symObjAddr: 0x7828, symBinAddr: 0x100007E7C, symSize: 0x28 }
  - { offsetInCU: 0x20C23, offset: 0x20C23, size: 0x8, addend: 0x0, symName: __ZNKSt3__117__compressed_pairIPiNS_9allocatorIiEEE5firstB8ue170006Ev, symObjAddr: 0x7850, symBinAddr: 0x100007EA4, symSize: 0x24 }
  - { offsetInCU: 0x20C49, offset: 0x20C49, size: 0x8, addend: 0x0, symName: __ZNKSt3__122__compressed_pair_elemIPiLi0ELb0EE5__getB8ue170006Ev, symObjAddr: 0x7874, symBinAddr: 0x100007EC8, symSize: 0x14 }
  - { offsetInCU: 0x20C6F, offset: 0x20C6F, size: 0x8, addend: 0x0, symName: __ZNSt3__113unordered_mapINS_12basic_stringIcNS_11char_traitsIcEENS_9allocatorIcEEEES6_NS_4hashIS6_EENS_8equal_toIS6_EENS4_INS_4pairIKS6_S6_EEEEED2B8ue170006Ev, symObjAddr: 0x7888, symBinAddr: 0x100007EDC, symSize: 0x2C }
  - { offsetInCU: 0x20C99, offset: 0x20C99, size: 0x8, addend: 0x0, symName: __ZNSt3__112__hash_tableINS_17__hash_value_typeINS_12basic_stringIcNS_11char_traitsIcEENS_9allocatorIcEEEES7_EENS_22__unordered_map_hasherIS7_S8_NS_4hashIS7_EENS_8equal_toIS7_EELb1EEENS_21__unordered_map_equalIS7_S8_SD_SB_Lb1EEENS5_IS8_EEED1Ev, symObjAddr: 0x78B4, symBinAddr: 0x100007F08, symSize: 0x2C }
  - { offsetInCU: 0x20CC5, offset: 0x20CC5, size: 0x8, addend: 0x0, symName: __ZNSt3__112__hash_tableINS_17__hash_value_typeINS_12basic_stringIcNS_11char_traitsIcEENS_9allocatorIcEEEES7_EENS_22__unordered_map_hasherIS7_S8_NS_4hashIS7_EENS_8equal_toIS7_EELb1EEENS_21__unordered_map_equalIS7_S8_SD_SB_Lb1EEENS5_IS8_EEED2Ev, symObjAddr: 0x78E0, symBinAddr: 0x100007F34, symSize: 0x48 }
  - { offsetInCU: 0x20CF1, offset: 0x20CF1, size: 0x8, addend: 0x0, symName: __ZNSt3__112__hash_tableINS_17__hash_value_typeINS_12basic_stringIcNS_11char_traitsIcEENS_9allocatorIcEEEES7_EENS_22__unordered_map_hasherIS7_S8_NS_4hashIS7_EENS_8equal_toIS7_EELb1EEENS_21__unordered_map_equalIS7_S8_SD_SB_Lb1EEENS5_IS8_EEE17__deallocate_nodeEPNS_16__hash_node_baseIPNS_11__hash_nodeIS8_PvEEEE, symObjAddr: 0x7928, symBinAddr: 0x100007F7C, symSize: 0xBC }
  - { offsetInCU: 0x20D5B, offset: 0x20D5B, size: 0x8, addend: 0x0, symName: __ZNSt3__117__compressed_pairINS_16__hash_node_baseIPNS_11__hash_nodeINS_17__hash_value_typeINS_12basic_stringIcNS_11char_traitsIcEENS_9allocatorIcEEEES9_EEPvEEEENS7_ISC_EEE5firstB8ue170006Ev, symObjAddr: 0x79E4, symBinAddr: 0x100008038, symSize: 0x24 }
  - { offsetInCU: 0x20D81, offset: 0x20D81, size: 0x8, addend: 0x0, symName: __ZNSt3__112__hash_tableINS_17__hash_value_typeINS_12basic_stringIcNS_11char_traitsIcEENS_9allocatorIcEEEES7_EENS_22__unordered_map_hasherIS7_S8_NS_4hashIS7_EENS_8equal_toIS7_EELb1EEENS_21__unordered_map_equalIS7_S8_SD_SB_Lb1EEENS5_IS8_EEE12__node_allocB8ue170006Ev, symObjAddr: 0x7A08, symBinAddr: 0x10000805C, symSize: 0x28 }
  - { offsetInCU: 0x20DA7, offset: 0x20DA7, size: 0x8, addend: 0x0, symName: __ZNSt3__116__hash_node_baseIPNS_11__hash_nodeINS_17__hash_value_typeINS_12basic_stringIcNS_11char_traitsIcEENS_9allocatorIcEEEES8_EEPvEEE8__upcastB8ue170006Ev, symObjAddr: 0x7A30, symBinAddr: 0x100008084, symSize: 0x24 }
  - { offsetInCU: 0x20DCD, offset: 0x20DCD, size: 0x8, addend: 0x0, symName: __ZNSt3__116allocator_traitsINS_9allocatorINS_11__hash_nodeINS_17__hash_value_typeINS_12basic_stringIcNS_11char_traitsIcEENS1_IcEEEES8_EEPvEEEEE7destroyB8ue170006INS_4pairIKS8_S8_EEvvEEvRSC_PT_, symObjAddr: 0x7A54, symBinAddr: 0x1000080A8, symSize: 0x28 }
  - { offsetInCU: 0x20E08, offset: 0x20E08, size: 0x8, addend: 0x0, symName: __ZNSt3__122__hash_key_value_typesINS_17__hash_value_typeINS_12basic_stringIcNS_11char_traitsIcEENS_9allocatorIcEEEES7_EEE9__get_ptrB8ue170006ERS8_, symObjAddr: 0x7A7C, symBinAddr: 0x1000080D0, symSize: 0x24 }
  - { offsetInCU: 0x20E2B, offset: 0x20E2B, size: 0x8, addend: 0x0, symName: __ZNSt3__116allocator_traitsINS_9allocatorINS_11__hash_nodeINS_17__hash_value_typeINS_12basic_stringIcNS_11char_traitsIcEENS1_IcEEEES8_EEPvEEEEE10deallocateB8ue170006ERSC_PSB_m, symObjAddr: 0x7AA0, symBinAddr: 0x1000080F4, symSize: 0x34 }
  - { offsetInCU: 0x20E6D, offset: 0x20E6D, size: 0x8, addend: 0x0, symName: __ZNSt3__117__compressed_pairINS_16__hash_node_baseIPNS_11__hash_nodeINS_17__hash_value_typeINS_12basic_stringIcNS_11char_traitsIcEENS_9allocatorIcEEEES9_EEPvEEEENS7_ISC_EEE6secondB8ue170006Ev, symObjAddr: 0x7AD4, symBinAddr: 0x100008128, symSize: 0x24 }
  - { offsetInCU: 0x20E93, offset: 0x20E93, size: 0x8, addend: 0x0, symName: __ZNSt3__122__compressed_pair_elemINS_9allocatorINS_11__hash_nodeINS_17__hash_value_typeINS_12basic_stringIcNS_11char_traitsIcEENS1_IcEEEES8_EEPvEEEELi1ELb1EE5__getB8ue170006Ev, symObjAddr: 0x7AF8, symBinAddr: 0x10000814C, symSize: 0x14 }
  - { offsetInCU: 0x20EB9, offset: 0x20EB9, size: 0x8, addend: 0x0, symName: __ZNSt3__114pointer_traitsIPNS_16__hash_node_baseIPNS_11__hash_nodeINS_17__hash_value_typeINS_12basic_stringIcNS_11char_traitsIcEENS_9allocatorIcEEEES9_EEPvEEEEE10pointer_toB8ue170006ERSE_, symObjAddr: 0x7B0C, symBinAddr: 0x100008160, symSize: 0x14 }
  - { offsetInCU: 0x20EDC, offset: 0x20EDC, size: 0x8, addend: 0x0, symName: __ZNSt3__117__hash_value_typeINS_12basic_stringIcNS_11char_traitsIcEENS_9allocatorIcEEEES6_E11__get_valueB8ue170006Ev, symObjAddr: 0x7B20, symBinAddr: 0x100008174, symSize: 0x14 }
  - { offsetInCU: 0x20F02, offset: 0x20F02, size: 0x8, addend: 0x0, symName: __ZNSt3__19allocatorINS_11__hash_nodeINS_17__hash_value_typeINS_12basic_stringIcNS_11char_traitsIcEENS0_IcEEEES7_EEPvEEE10deallocateB8ue170006EPSA_m, symObjAddr: 0x7B34, symBinAddr: 0x100008188, symSize: 0x70 }
  - { offsetInCU: 0x20F44, offset: 0x20F44, size: 0x8, addend: 0x0, symName: __ZNSt3__122__compressed_pair_elemINS_16__hash_node_baseIPNS_11__hash_nodeINS_17__hash_value_typeINS_12basic_stringIcNS_11char_traitsIcEENS_9allocatorIcEEEES9_EEPvEEEELi0ELb0EE5__getB8ue170006Ev, symObjAddr: 0x7BA4, symBinAddr: 0x1000081F8, symSize: 0x14 }
  - { offsetInCU: 0x20F6A, offset: 0x20F6A, size: 0x8, addend: 0x0, symName: __ZNSt3__16vectorINS_12basic_stringIcNS_11char_traitsIcEENS_9allocatorIcEEEENS4_IS6_EEED2B8ue170006Ev, symObjAddr: 0x7BB8, symBinAddr: 0x10000820C, symSize: 0x3C }
  - { offsetInCU: 0x20F94, offset: 0x20F94, size: 0x8, addend: 0x0, symName: __ZNSt3__16vectorINS_12basic_stringIcNS_11char_traitsIcEENS_9allocatorIcEEEENS4_IS6_EEE16__destroy_vectorC1B8ue170006ERS8_, symObjAddr: 0x7BF4, symBinAddr: 0x100008248, symSize: 0x34 }
  - { offsetInCU: 0x20FCD, offset: 0x20FCD, size: 0x8, addend: 0x0, symName: __ZNSt3__16vectorINS_12basic_stringIcNS_11char_traitsIcEENS_9allocatorIcEEEENS4_IS6_EEE16__destroy_vectorclB8ue170006Ev, symObjAddr: 0x7C28, symBinAddr: 0x10000827C, symSize: 0x90 }
  - { offsetInCU: 0x20FF3, offset: 0x20FF3, size: 0x8, addend: 0x0, symName: __ZNSt3__16vectorINS_12basic_stringIcNS_11char_traitsIcEENS_9allocatorIcEEEENS4_IS6_EEE16__destroy_vectorC2B8ue170006ERS8_, symObjAddr: 0x7CB8, symBinAddr: 0x10000830C, symSize: 0x20 }
  - { offsetInCU: 0x2102C, offset: 0x2102C, size: 0x8, addend: 0x0, symName: __ZNSt3__16vectorINS_12basic_stringIcNS_11char_traitsIcEENS_9allocatorIcEEEENS4_IS6_EEE7__clearB8ue170006Ev, symObjAddr: 0x7CD8, symBinAddr: 0x10000832C, symSize: 0x28 }
  - { offsetInCU: 0x21052, offset: 0x21052, size: 0x8, addend: 0x0, symName: __ZNKSt3__16vectorINS_12basic_stringIcNS_11char_traitsIcEENS_9allocatorIcEEEENS4_IS6_EEE17__annotate_deleteB8ue170006Ev, symObjAddr: 0x7D00, symBinAddr: 0x100008354, symSize: 0xD4 }
  - { offsetInCU: 0x21078, offset: 0x21078, size: 0x8, addend: 0x0, symName: __ZNSt3__116allocator_traitsINS_9allocatorINS_12basic_stringIcNS_11char_traitsIcEENS1_IcEEEEEEE10deallocateB8ue170006ERS7_PS6_m, symObjAddr: 0x7DD4, symBinAddr: 0x100008428, symSize: 0x34 }
  - { offsetInCU: 0x210BA, offset: 0x210BA, size: 0x8, addend: 0x0, symName: __ZNSt3__16vectorINS_12basic_stringIcNS_11char_traitsIcEENS_9allocatorIcEEEENS4_IS6_EEE7__allocB8ue170006Ev, symObjAddr: 0x7E08, symBinAddr: 0x10000845C, symSize: 0x28 }
  - { offsetInCU: 0x210E0, offset: 0x210E0, size: 0x8, addend: 0x0, symName: __ZNKSt3__16vectorINS_12basic_stringIcNS_11char_traitsIcEENS_9allocatorIcEEEENS4_IS6_EEE8capacityB8ue170006Ev, symObjAddr: 0x7E30, symBinAddr: 0x100008484, symSize: 0x40 }
  - { offsetInCU: 0x21106, offset: 0x21106, size: 0x8, addend: 0x0, symName: __ZNSt3__16vectorINS_12basic_stringIcNS_11char_traitsIcEENS_9allocatorIcEEEENS4_IS6_EEE22__base_destruct_at_endB8ue170006EPS6_, symObjAddr: 0x7E70, symBinAddr: 0x1000084C4, symSize: 0xA0 }
  - { offsetInCU: 0x2114A, offset: 0x2114A, size: 0x8, addend: 0x0, symName: __ZNSt3__116allocator_traitsINS_9allocatorINS_12basic_stringIcNS_11char_traitsIcEENS1_IcEEEEEEE7destroyB8ue170006IS6_vEEvRS7_PT_, symObjAddr: 0x7F10, symBinAddr: 0x100008564, symSize: 0x2C }
  - { offsetInCU: 0x21187, offset: 0x21187, size: 0x8, addend: 0x0, symName: __ZNSt3__19allocatorINS_12basic_stringIcNS_11char_traitsIcEENS0_IcEEEEE7destroyB8ue170006EPS5_, symObjAddr: 0x7F50, symBinAddr: 0x1000085A4, symSize: 0x28 }
  - { offsetInCU: 0x211BB, offset: 0x211BB, size: 0x8, addend: 0x0, symName: __ZNKSt3__16vectorINS_12basic_stringIcNS_11char_traitsIcEENS_9allocatorIcEEEENS4_IS6_EEE31__annotate_contiguous_containerB8ue170006EPKvSA_SA_SA_, symObjAddr: 0x7F78, symBinAddr: 0x1000085CC, symSize: 0x20 }
  - { offsetInCU: 0x21211, offset: 0x21211, size: 0x8, addend: 0x0, symName: __ZNKSt3__16vectorINS_12basic_stringIcNS_11char_traitsIcEENS_9allocatorIcEEEENS4_IS6_EEE4dataB8ue170006Ev, symObjAddr: 0x7F98, symBinAddr: 0x1000085EC, symSize: 0x28 }
  - { offsetInCU: 0x21237, offset: 0x21237, size: 0x8, addend: 0x0, symName: __ZNKSt3__16vectorINS_12basic_stringIcNS_11char_traitsIcEENS_9allocatorIcEEEENS4_IS6_EEE4sizeB8ue170006Ev, symObjAddr: 0x7FC0, symBinAddr: 0x100008614, symSize: 0x28 }
  - { offsetInCU: 0x2125D, offset: 0x2125D, size: 0x8, addend: 0x0, symName: __ZNSt3__19allocatorINS_12basic_stringIcNS_11char_traitsIcEENS0_IcEEEEE10deallocateB8ue170006EPS5_m, symObjAddr: 0x7FE8, symBinAddr: 0x10000863C, symSize: 0x74 }
  - { offsetInCU: 0x2129F, offset: 0x2129F, size: 0x8, addend: 0x0, symName: __ZNSt3__117__compressed_pairIPNS_12basic_stringIcNS_11char_traitsIcEENS_9allocatorIcEEEENS4_IS6_EEE6secondB8ue170006Ev, symObjAddr: 0x805C, symBinAddr: 0x1000086B0, symSize: 0x24 }
  - { offsetInCU: 0x212C5, offset: 0x212C5, size: 0x8, addend: 0x0, symName: __ZNSt3__122__compressed_pair_elemINS_9allocatorINS_12basic_stringIcNS_11char_traitsIcEENS1_IcEEEEEELi1ELb1EE5__getB8ue170006Ev, symObjAddr: 0x8080, symBinAddr: 0x1000086D4, symSize: 0x14 }
  - { offsetInCU: 0x212EB, offset: 0x212EB, size: 0x8, addend: 0x0, symName: __ZNKSt3__16vectorINS_12basic_stringIcNS_11char_traitsIcEENS_9allocatorIcEEEENS4_IS6_EEE9__end_capB8ue170006Ev, symObjAddr: 0x8094, symBinAddr: 0x1000086E8, symSize: 0x28 }
  - { offsetInCU: 0x21311, offset: 0x21311, size: 0x8, addend: 0x0, symName: __ZNKSt3__117__compressed_pairIPNS_12basic_stringIcNS_11char_traitsIcEENS_9allocatorIcEEEENS4_IS6_EEE5firstB8ue170006Ev, symObjAddr: 0x80BC, symBinAddr: 0x100008710, symSize: 0x24 }
  - { offsetInCU: 0x21337, offset: 0x21337, size: 0x8, addend: 0x0, symName: __ZNKSt3__122__compressed_pair_elemIPNS_12basic_stringIcNS_11char_traitsIcEENS_9allocatorIcEEEELi0ELb0EE5__getB8ue170006Ev, symObjAddr: 0x80E0, symBinAddr: 0x100008734, symSize: 0x14 }
  - { offsetInCU: 0x2135D, offset: 0x2135D, size: 0x8, addend: 0x0, symName: __ZNKSt3__16vectorINS_12basic_stringIcNS_11char_traitsIcEENS_9allocatorIcEEEENS4_IS6_EEE17__annotate_shrinkB8ue170006Em, symObjAddr: 0x80F4, symBinAddr: 0x100008748, symSize: 0xD0 }
  - { offsetInCU: 0x21392, offset: 0x21392, size: 0x8, addend: 0x0, symName: __ZNSt3__16vectorINS_12basic_stringIcNS_11char_traitsIcEENS_9allocatorIcEEEENS4_IS6_EEE9__end_capB8ue170006Ev, symObjAddr: 0x81C4, symBinAddr: 0x100008818, symSize: 0x28 }
  - { offsetInCU: 0x213B8, offset: 0x213B8, size: 0x8, addend: 0x0, symName: __ZNSt3__16vectorINS_12basic_stringIcNS_11char_traitsIcEENS_9allocatorIcEEEENS4_IS6_EEE22__construct_one_at_endB8ue170006IJRKS6_EEEvDpOT_, symObjAddr: 0x81EC, symBinAddr: 0x100008840, symSize: 0x98 }
  - { offsetInCU: 0x21407, offset: 0x21407, size: 0x8, addend: 0x0, symName: __ZNSt3__16vectorINS_12basic_stringIcNS_11char_traitsIcEENS_9allocatorIcEEEENS4_IS6_EEE21__push_back_slow_pathIRKS6_EEvOT_, symObjAddr: 0x8284, symBinAddr: 0x1000088D8, symSize: 0xE0 }
  - { offsetInCU: 0x21465, offset: 0x21465, size: 0x8, addend: 0x0, symName: __ZNSt3__117__compressed_pairIPNS_12basic_stringIcNS_11char_traitsIcEENS_9allocatorIcEEEENS4_IS6_EEE5firstB8ue170006Ev, symObjAddr: 0x8364, symBinAddr: 0x1000089B8, symSize: 0x24 }
  - { offsetInCU: 0x2148B, offset: 0x2148B, size: 0x8, addend: 0x0, symName: __ZNSt3__122__compressed_pair_elemIPNS_12basic_stringIcNS_11char_traitsIcEENS_9allocatorIcEEEELi0ELb0EE5__getB8ue170006Ev, symObjAddr: 0x8388, symBinAddr: 0x1000089DC, symSize: 0x14 }
  - { offsetInCU: 0x214CA, offset: 0x214CA, size: 0x8, addend: 0x0, symName: __ZNSt3__16vectorINS_12basic_stringIcNS_11char_traitsIcEENS_9allocatorIcEEEENS4_IS6_EEE21_ConstructTransactionC1B8ue170006ERS8_m, symObjAddr: 0x839C, symBinAddr: 0x1000089F0, symSize: 0x3C }
  - { offsetInCU: 0x21512, offset: 0x21512, size: 0x8, addend: 0x0, symName: __ZNSt3__116allocator_traitsINS_9allocatorINS_12basic_stringIcNS_11char_traitsIcEENS1_IcEEEEEEE9constructB8ue170006IS6_JRKS6_EvEEvRS7_PT_DpOT0_, symObjAddr: 0x83D8, symBinAddr: 0x100008A2C, symSize: 0x34 }
  - { offsetInCU: 0x21569, offset: 0x21569, size: 0x8, addend: 0x0, symName: __ZNSt3__16vectorINS_12basic_stringIcNS_11char_traitsIcEENS_9allocatorIcEEEENS4_IS6_EEE21_ConstructTransactionD1B8ue170006Ev, symObjAddr: 0x840C, symBinAddr: 0x100008A60, symSize: 0x2C }
  - { offsetInCU: 0x21593, offset: 0x21593, size: 0x8, addend: 0x0, symName: __ZNSt3__16vectorINS_12basic_stringIcNS_11char_traitsIcEENS_9allocatorIcEEEENS4_IS6_EEE21_ConstructTransactionC2B8ue170006ERS8_m, symObjAddr: 0x8438, symBinAddr: 0x100008A8C, symSize: 0x4C }
  - { offsetInCU: 0x215DB, offset: 0x215DB, size: 0x8, addend: 0x0, symName: __ZNSt3__19allocatorINS_12basic_stringIcNS_11char_traitsIcEENS0_IcEEEEE9constructB8ue170006IS5_JRKS5_EEEvPT_DpOT0_, symObjAddr: 0x8484, symBinAddr: 0x100008AD8, symSize: 0x30 }
  - { offsetInCU: 0x21631, offset: 0x21631, size: 0x8, addend: 0x0, symName: __ZNSt3__16vectorINS_12basic_stringIcNS_11char_traitsIcEENS_9allocatorIcEEEENS4_IS6_EEE21_ConstructTransactionD2B8ue170006Ev, symObjAddr: 0x84B4, symBinAddr: 0x100008B08, symSize: 0x20 }
  - { offsetInCU: 0x2165B, offset: 0x2165B, size: 0x8, addend: 0x0, symName: __ZNKSt3__16vectorINS_12basic_stringIcNS_11char_traitsIcEENS_9allocatorIcEEEENS4_IS6_EEE11__recommendB8ue170006Em, symObjAddr: 0x84D4, symBinAddr: 0x100008B28, symSize: 0xB4 }
  - { offsetInCU: 0x216B0, offset: 0x216B0, size: 0x8, addend: 0x0, symName: __ZNSt3__114__split_bufferINS_12basic_stringIcNS_11char_traitsIcEENS_9allocatorIcEEEERNS4_IS6_EEEC1EmmS8_, symObjAddr: 0x8588, symBinAddr: 0x100008BDC, symSize: 0x44 }
  - { offsetInCU: 0x21706, offset: 0x21706, size: 0x8, addend: 0x0, symName: __ZNSt3__114__split_bufferINS_12basic_stringIcNS_11char_traitsIcEENS_9allocatorIcEEEERNS4_IS6_EEED1Ev, symObjAddr: 0x86DC, symBinAddr: 0x100008D30, symSize: 0x2C }
  - { offsetInCU: 0x21732, offset: 0x21732, size: 0x8, addend: 0x0, symName: __ZNKSt3__16vectorINS_12basic_stringIcNS_11char_traitsIcEENS_9allocatorIcEEEENS4_IS6_EEE8max_sizeEv, symObjAddr: 0x8708, symBinAddr: 0x100008D5C, symSize: 0x74 }
  - { offsetInCU: 0x2175A, offset: 0x2175A, size: 0x8, addend: 0x0, symName: __ZNKSt3__16vectorINS_12basic_stringIcNS_11char_traitsIcEENS_9allocatorIcEEEENS4_IS6_EEE20__throw_length_errorB8ue170006Ev, symObjAddr: 0x877C, symBinAddr: 0x100008DD0, symSize: 0x1C }
  - { offsetInCU: 0x2178A, offset: 0x2178A, size: 0x8, addend: 0x0, symName: __ZNSt3__116allocator_traitsINS_9allocatorINS_12basic_stringIcNS_11char_traitsIcEENS1_IcEEEEEEE8max_sizeB8ue170006IS7_vEEmRKS7_, symObjAddr: 0x87C4, symBinAddr: 0x100008E18, symSize: 0x24 }
  - { offsetInCU: 0x217B8, offset: 0x217B8, size: 0x8, addend: 0x0, symName: __ZNKSt3__16vectorINS_12basic_stringIcNS_11char_traitsIcEENS_9allocatorIcEEEENS4_IS6_EEE7__allocB8ue170006Ev, symObjAddr: 0x87E8, symBinAddr: 0x100008E3C, symSize: 0x28 }
  - { offsetInCU: 0x217DE, offset: 0x217DE, size: 0x8, addend: 0x0, symName: __ZNSt3__114numeric_limitsIlE3maxB8ue170006Ev, symObjAddr: 0x8810, symBinAddr: 0x100008E64, symSize: 0x14 }
  - { offsetInCU: 0x217F2, offset: 0x217F2, size: 0x8, addend: 0x0, symName: __ZNKSt3__19allocatorINS_12basic_stringIcNS_11char_traitsIcEENS0_IcEEEEE8max_sizeB8ue170006Ev, symObjAddr: 0x8878, symBinAddr: 0x100008ECC, symSize: 0x18 }
  - { offsetInCU: 0x21818, offset: 0x21818, size: 0x8, addend: 0x0, symName: __ZNKSt3__117__compressed_pairIPNS_12basic_stringIcNS_11char_traitsIcEENS_9allocatorIcEEEENS4_IS6_EEE6secondB8ue170006Ev, symObjAddr: 0x8890, symBinAddr: 0x100008EE4, symSize: 0x24 }
  - { offsetInCU: 0x2183E, offset: 0x2183E, size: 0x8, addend: 0x0, symName: __ZNKSt3__122__compressed_pair_elemINS_9allocatorINS_12basic_stringIcNS_11char_traitsIcEENS1_IcEEEEEELi1ELb1EE5__getB8ue170006Ev, symObjAddr: 0x88B4, symBinAddr: 0x100008F08, symSize: 0x14 }
  - { offsetInCU: 0x21864, offset: 0x21864, size: 0x8, addend: 0x0, symName: __ZNSt3__123__libcpp_numeric_limitsIlLb1EE3maxB8ue170006Ev, symObjAddr: 0x88C8, symBinAddr: 0x100008F1C, symSize: 0x8 }
  - { offsetInCU: 0x21878, offset: 0x21878, size: 0x8, addend: 0x0, symName: __ZNSt12length_errorC1B8ue170006EPKc, symObjAddr: 0x8934, symBinAddr: 0x100008F88, symSize: 0x34 }
  - { offsetInCU: 0x218B0, offset: 0x218B0, size: 0x8, addend: 0x0, symName: __ZNSt12length_errorC2B8ue170006EPKc, symObjAddr: 0x8968, symBinAddr: 0x100008FBC, symSize: 0x4C }
  - { offsetInCU: 0x218E8, offset: 0x218E8, size: 0x8, addend: 0x0, symName: __ZNSt3__114__split_bufferINS_12basic_stringIcNS_11char_traitsIcEENS_9allocatorIcEEEERNS4_IS6_EEEC2EmmS8_, symObjAddr: 0x89B4, symBinAddr: 0x100009008, symSize: 0xE0 }
  - { offsetInCU: 0x2195B, offset: 0x2195B, size: 0x8, addend: 0x0, symName: __ZNSt3__117__compressed_pairIPNS_12basic_stringIcNS_11char_traitsIcEENS_9allocatorIcEEEERNS4_IS6_EEEC1B8ue170006IDnS9_EEOT_OT0_, symObjAddr: 0x8A94, symBinAddr: 0x1000090E8, symSize: 0x3C }
  - { offsetInCU: 0x219B3, offset: 0x219B3, size: 0x8, addend: 0x0, symName: __ZNSt3__114__split_bufferINS_12basic_stringIcNS_11char_traitsIcEENS_9allocatorIcEEEERNS4_IS6_EEE7__allocB8ue170006Ev, symObjAddr: 0x8B10, symBinAddr: 0x100009164, symSize: 0x28 }
  - { offsetInCU: 0x219D9, offset: 0x219D9, size: 0x8, addend: 0x0, symName: __ZNSt3__114__split_bufferINS_12basic_stringIcNS_11char_traitsIcEENS_9allocatorIcEEEERNS4_IS6_EEE9__end_capB8ue170006Ev, symObjAddr: 0x8B38, symBinAddr: 0x10000918C, symSize: 0x28 }
  - { offsetInCU: 0x219FF, offset: 0x219FF, size: 0x8, addend: 0x0, symName: __ZNSt3__117__compressed_pairIPNS_12basic_stringIcNS_11char_traitsIcEENS_9allocatorIcEEEERNS4_IS6_EEEC2B8ue170006IDnS9_EEOT_OT0_, symObjAddr: 0x8B60, symBinAddr: 0x1000091B4, symSize: 0x48 }
  - { offsetInCU: 0x21A57, offset: 0x21A57, size: 0x8, addend: 0x0, symName: __ZNSt3__122__compressed_pair_elemIRNS_9allocatorINS_12basic_stringIcNS_11char_traitsIcEENS1_IcEEEEEELi1ELb0EEC2B8ue170006IS8_vEEOT_, symObjAddr: 0x8BA8, symBinAddr: 0x1000091FC, symSize: 0x20 }
  - { offsetInCU: 0x21A99, offset: 0x21A99, size: 0x8, addend: 0x0, symName: __ZNSt3__19allocatorINS_12basic_stringIcNS_11char_traitsIcEENS0_IcEEEEE8allocateB8ue170006Em, symObjAddr: 0x8BC8, symBinAddr: 0x10000921C, symSize: 0x8C }
  - { offsetInCU: 0x21ACD, offset: 0x21ACD, size: 0x8, addend: 0x0, symName: __ZNSt3__117__compressed_pairIPNS_12basic_stringIcNS_11char_traitsIcEENS_9allocatorIcEEEERNS4_IS6_EEE6secondB8ue170006Ev, symObjAddr: 0x8C54, symBinAddr: 0x1000092A8, symSize: 0x28 }
  - { offsetInCU: 0x21AF3, offset: 0x21AF3, size: 0x8, addend: 0x0, symName: __ZNSt3__122__compressed_pair_elemIRNS_9allocatorINS_12basic_stringIcNS_11char_traitsIcEENS1_IcEEEEEELi1ELb0EE5__getB8ue170006Ev, symObjAddr: 0x8C7C, symBinAddr: 0x1000092D0, symSize: 0x18 }
  - { offsetInCU: 0x21B19, offset: 0x21B19, size: 0x8, addend: 0x0, symName: __ZNSt3__117__compressed_pairIPNS_12basic_stringIcNS_11char_traitsIcEENS_9allocatorIcEEEERNS4_IS6_EEE5firstB8ue170006Ev, symObjAddr: 0x8C94, symBinAddr: 0x1000092E8, symSize: 0x24 }
  - { offsetInCU: 0x21B3F, offset: 0x21B3F, size: 0x8, addend: 0x0, symName: __ZNSt3__116reverse_iteratorIPNS_12basic_stringIcNS_11char_traitsIcEENS_9allocatorIcEEEEEC1B8ue170006ES7_, symObjAddr: 0x8DEC, symBinAddr: 0x100009440, symSize: 0x34 }
  - { offsetInCU: 0x21B77, offset: 0x21B77, size: 0x8, addend: 0x0, symName: __ZNKSt3__116reverse_iteratorIPNS_12basic_stringIcNS_11char_traitsIcEENS_9allocatorIcEEEEE4baseB8ue170006Ev, symObjAddr: 0x8E20, symBinAddr: 0x100009474, symSize: 0x18 }
  - { offsetInCU: 0x21B9D, offset: 0x21B9D, size: 0x8, addend: 0x0, symName: __ZNKSt3__16vectorINS_12basic_stringIcNS_11char_traitsIcEENS_9allocatorIcEEEENS4_IS6_EEE14__annotate_newB8ue170006Em, symObjAddr: 0x8E74, symBinAddr: 0x1000094C8, symSize: 0xC8 }
  - { offsetInCU: 0x21BD2, offset: 0x21BD2, size: 0x8, addend: 0x0, symName: __ZNSt3__129_AllocatorDestroyRangeReverseINS_9allocatorINS_12basic_stringIcNS_11char_traitsIcEENS1_IcEEEEEENS_16reverse_iteratorIPS6_EEEC1B8ue170006ERS7_RSA_SD_, symObjAddr: 0x8F88, symBinAddr: 0x1000095DC, symSize: 0x44 }
  - { offsetInCU: 0x21C29, offset: 0x21C29, size: 0x8, addend: 0x0, symName: __ZNKSt3__116reverse_iteratorIPNS_12basic_stringIcNS_11char_traitsIcEENS_9allocatorIcEEEEEdeB8ue170006Ev, symObjAddr: 0x9038, symBinAddr: 0x10000968C, symSize: 0x28 }
  - { offsetInCU: 0x21C5D, offset: 0x21C5D, size: 0x8, addend: 0x0, symName: __ZNSt3__116reverse_iteratorIPNS_12basic_stringIcNS_11char_traitsIcEENS_9allocatorIcEEEEEppB8ue170006Ev, symObjAddr: 0x9060, symBinAddr: 0x1000096B4, symSize: 0x20 }
  - { offsetInCU: 0x21C83, offset: 0x21C83, size: 0x8, addend: 0x0, symName: __ZNSt3__128__exception_guard_exceptionsINS_29_AllocatorDestroyRangeReverseINS_9allocatorINS_12basic_stringIcNS_11char_traitsIcEENS2_IcEEEEEENS_16reverse_iteratorIPS7_EEEEE10__completeB8ue170006Ev, symObjAddr: 0x9080, symBinAddr: 0x1000096D4, symSize: 0x1C }
  - { offsetInCU: 0x21CA9, offset: 0x21CA9, size: 0x8, addend: 0x0, symName: __ZNSt3__128__exception_guard_exceptionsINS_29_AllocatorDestroyRangeReverseINS_9allocatorINS_12basic_stringIcNS_11char_traitsIcEENS2_IcEEEEEENS_16reverse_iteratorIPS7_EEEEED1B8ue170006Ev, symObjAddr: 0x909C, symBinAddr: 0x1000096F0, symSize: 0x2C }
  - { offsetInCU: 0x21CD3, offset: 0x21CD3, size: 0x8, addend: 0x0, symName: __ZNSt3__128__exception_guard_exceptionsINS_29_AllocatorDestroyRangeReverseINS_9allocatorINS_12basic_stringIcNS_11char_traitsIcEENS2_IcEEEEEENS_16reverse_iteratorIPS7_EEEEEC1B8ue170006ESC_, symObjAddr: 0x90C8, symBinAddr: 0x10000971C, symSize: 0x34 }
  - { offsetInCU: 0x21D0C, offset: 0x21D0C, size: 0x8, addend: 0x0, symName: __ZNSt3__128__exception_guard_exceptionsINS_29_AllocatorDestroyRangeReverseINS_9allocatorINS_12basic_stringIcNS_11char_traitsIcEENS2_IcEEEEEENS_16reverse_iteratorIPS7_EEEEEC2B8ue170006ESC_, symObjAddr: 0x90FC, symBinAddr: 0x100009750, symSize: 0x30 }
  - { offsetInCU: 0x21D45, offset: 0x21D45, size: 0x8, addend: 0x0, symName: __ZNSt3__129_AllocatorDestroyRangeReverseINS_9allocatorINS_12basic_stringIcNS_11char_traitsIcEENS1_IcEEEEEENS_16reverse_iteratorIPS6_EEEC2B8ue170006ERS7_RSA_SD_, symObjAddr: 0x912C, symBinAddr: 0x100009780, symSize: 0x38 }
  - { offsetInCU: 0x21DA1, offset: 0x21DA1, size: 0x8, addend: 0x0, symName: __ZNSt3__119__to_address_helperINS_16reverse_iteratorIPNS_12basic_stringIcNS_11char_traitsIcEENS_9allocatorIcEEEEEEvE6__callB8ue170006ERKS9_, symObjAddr: 0x9164, symBinAddr: 0x1000097B8, symSize: 0x4C }
  - { offsetInCU: 0x21DC4, offset: 0x21DC4, size: 0x8, addend: 0x0, symName: __ZNKSt3__116reverse_iteratorIPNS_12basic_stringIcNS_11char_traitsIcEENS_9allocatorIcEEEEEptB8ue170006Ev, symObjAddr: 0x91B0, symBinAddr: 0x100009804, symSize: 0x24 }
  - { offsetInCU: 0x21DEA, offset: 0x21DEA, size: 0x8, addend: 0x0, symName: __ZNSt3__128__exception_guard_exceptionsINS_29_AllocatorDestroyRangeReverseINS_9allocatorINS_12basic_stringIcNS_11char_traitsIcEENS2_IcEEEEEENS_16reverse_iteratorIPS7_EEEEED2B8ue170006Ev, symObjAddr: 0x91D4, symBinAddr: 0x100009828, symSize: 0x48 }
  - { offsetInCU: 0x21E14, offset: 0x21E14, size: 0x8, addend: 0x0, symName: __ZNKSt3__129_AllocatorDestroyRangeReverseINS_9allocatorINS_12basic_stringIcNS_11char_traitsIcEENS1_IcEEEEEENS_16reverse_iteratorIPS6_EEEclB8ue170006Ev, symObjAddr: 0x921C, symBinAddr: 0x100009870, symSize: 0xB4 }
  - { offsetInCU: 0x21E3B, offset: 0x21E3B, size: 0x8, addend: 0x0, symName: __ZNSt3__116reverse_iteratorINS0_IPNS_12basic_stringIcNS_11char_traitsIcEENS_9allocatorIcEEEEEEEC1B8ue170006ES8_, symObjAddr: 0x9340, symBinAddr: 0x100009994, symSize: 0x3C }
  - { offsetInCU: 0x21E73, offset: 0x21E73, size: 0x8, addend: 0x0, symName: __ZNSt3__116reverse_iteratorINS0_IPNS_12basic_stringIcNS_11char_traitsIcEENS_9allocatorIcEEEEEEEppB8ue170006Ev, symObjAddr: 0x9400, symBinAddr: 0x100009A54, symSize: 0x30 }
  - { offsetInCU: 0x21E99, offset: 0x21E99, size: 0x8, addend: 0x0, symName: __ZNKSt3__116reverse_iteratorINS0_IPNS_12basic_stringIcNS_11char_traitsIcEENS_9allocatorIcEEEEEEE4baseB8ue170006Ev, symObjAddr: 0x9430, symBinAddr: 0x100009A84, symSize: 0x24 }
  - { offsetInCU: 0x21EC4, offset: 0x21EC4, size: 0x8, addend: 0x0, symName: __ZNSt3__119__to_address_helperINS_16reverse_iteratorINS1_IPNS_12basic_stringIcNS_11char_traitsIcEENS_9allocatorIcEEEEEEEEvE6__callB8ue170006ERKSA_, symObjAddr: 0x9454, symBinAddr: 0x100009AA8, symSize: 0x4C }
  - { offsetInCU: 0x21EE7, offset: 0x21EE7, size: 0x8, addend: 0x0, symName: __ZNKSt3__116reverse_iteratorINS0_IPNS_12basic_stringIcNS_11char_traitsIcEENS_9allocatorIcEEEEEEEptB8ue170006Ev, symObjAddr: 0x94A0, symBinAddr: 0x100009AF4, symSize: 0x24 }
  - { offsetInCU: 0x21F0D, offset: 0x21F0D, size: 0x8, addend: 0x0, symName: __ZNKSt3__116reverse_iteratorINS0_IPNS_12basic_stringIcNS_11char_traitsIcEENS_9allocatorIcEEEEEEEdeB8ue170006Ev, symObjAddr: 0x94C4, symBinAddr: 0x100009B18, symSize: 0x34 }
  - { offsetInCU: 0x21F41, offset: 0x21F41, size: 0x8, addend: 0x0, symName: __ZNSt3__116reverse_iteratorIPNS_12basic_stringIcNS_11char_traitsIcEENS_9allocatorIcEEEEEmmB8ue170006Ev, symObjAddr: 0x94F8, symBinAddr: 0x100009B4C, symSize: 0x20 }
  - { offsetInCU: 0x21F67, offset: 0x21F67, size: 0x8, addend: 0x0, symName: __ZNSt3__116reverse_iteratorINS0_IPNS_12basic_stringIcNS_11char_traitsIcEENS_9allocatorIcEEEEEEEC2B8ue170006ES8_, symObjAddr: 0x9518, symBinAddr: 0x100009B6C, symSize: 0x2C }
  - { offsetInCU: 0x21F9F, offset: 0x21F9F, size: 0x8, addend: 0x0, symName: __ZNSt3__116reverse_iteratorIPNS_12basic_stringIcNS_11char_traitsIcEENS_9allocatorIcEEEEEC2B8ue170006ES7_, symObjAddr: 0x9544, symBinAddr: 0x100009B98, symSize: 0x28 }
  - { offsetInCU: 0x21FD7, offset: 0x21FD7, size: 0x8, addend: 0x0, symName: __ZNSt3__114__split_bufferINS_12basic_stringIcNS_11char_traitsIcEENS_9allocatorIcEEEERNS4_IS6_EEED2Ev, symObjAddr: 0x956C, symBinAddr: 0x100009BC0, symSize: 0x80 }
  - { offsetInCU: 0x22003, offset: 0x22003, size: 0x8, addend: 0x0, symName: __ZNSt3__114__split_bufferINS_12basic_stringIcNS_11char_traitsIcEENS_9allocatorIcEEEERNS4_IS6_EEE5clearB8ue170006Ev, symObjAddr: 0x95EC, symBinAddr: 0x100009C40, symSize: 0x28 }
  - { offsetInCU: 0x22029, offset: 0x22029, size: 0x8, addend: 0x0, symName: __ZNKSt3__114__split_bufferINS_12basic_stringIcNS_11char_traitsIcEENS_9allocatorIcEEEERNS4_IS6_EEE8capacityB8ue170006Ev, symObjAddr: 0x9614, symBinAddr: 0x100009C68, symSize: 0x40 }
  - { offsetInCU: 0x2204F, offset: 0x2204F, size: 0x8, addend: 0x0, symName: __ZNSt3__114__split_bufferINS_12basic_stringIcNS_11char_traitsIcEENS_9allocatorIcEEEERNS4_IS6_EEE17__destruct_at_endB8ue170006EPS6_, symObjAddr: 0x9654, symBinAddr: 0x100009CA8, symSize: 0x2C }
  - { offsetInCU: 0x22083, offset: 0x22083, size: 0x8, addend: 0x0, symName: __ZNSt3__114__split_bufferINS_12basic_stringIcNS_11char_traitsIcEENS_9allocatorIcEEEERNS4_IS6_EEE17__destruct_at_endB8ue170006EPS6_NS_17integral_constantIbLb0EEE, symObjAddr: 0x9680, symBinAddr: 0x100009CD4, symSize: 0x94 }
  - { offsetInCU: 0x220C3, offset: 0x220C3, size: 0x8, addend: 0x0, symName: __ZNKSt3__114__split_bufferINS_12basic_stringIcNS_11char_traitsIcEENS_9allocatorIcEEEERNS4_IS6_EEE9__end_capB8ue170006Ev, symObjAddr: 0x9714, symBinAddr: 0x100009D68, symSize: 0x28 }
  - { offsetInCU: 0x220E9, offset: 0x220E9, size: 0x8, addend: 0x0, symName: __ZNKSt3__117__compressed_pairIPNS_12basic_stringIcNS_11char_traitsIcEENS_9allocatorIcEEEERNS4_IS6_EEE5firstB8ue170006Ev, symObjAddr: 0x973C, symBinAddr: 0x100009D90, symSize: 0x24 }
  - { offsetInCU: 0x2210F, offset: 0x2210F, size: 0x8, addend: 0x0, symName: __ZNSt3__112__hash_tableINS_17__hash_value_typeINS_12basic_stringIcNS_11char_traitsIcEENS_9allocatorIcEEEES7_EENS_22__unordered_map_hasherIS7_S8_NS_4hashIS7_EENS_8equal_toIS7_EELb1EEENS_21__unordered_map_equalIS7_S8_SD_SB_Lb1EEENS5_IS8_EEE15__insert_uniqueB8ue170006ERKNS_4pairIKS7_S7_EE, symObjAddr: 0x9760, symBinAddr: 0x100009DB4, symSize: 0x50 }
  - { offsetInCU: 0x22144, offset: 0x22144, size: 0x8, addend: 0x0, symName: __ZNSt3__14pairINS_19__hash_map_iteratorINS_15__hash_iteratorIPNS_11__hash_nodeINS_17__hash_value_typeINS_12basic_stringIcNS_11char_traitsIcEENS_9allocatorIcEEEESA_EEPvEEEEEEbEC1B8ue170006ISF_bEERKNS0_IT_T0_EE, symObjAddr: 0x97B0, symBinAddr: 0x100009E04, symSize: 0x34 }
  - { offsetInCU: 0x2218E, offset: 0x2218E, size: 0x8, addend: 0x0, symName: __ZNSt3__112__hash_tableINS_17__hash_value_typeINS_12basic_stringIcNS_11char_traitsIcEENS_9allocatorIcEEEES7_EENS_22__unordered_map_hasherIS7_S8_NS_4hashIS7_EENS_8equal_toIS7_EELb1EEENS_21__unordered_map_equalIS7_S8_SD_SB_Lb1EEENS5_IS8_EEE25__emplace_unique_key_argsIS7_JRKNS_4pairIKS7_S7_EEEEENSK_INS_15__hash_iteratorIPNS_11__hash_nodeIS8_PvEEEEbEERKT_DpOT0_, symObjAddr: 0x97E4, symBinAddr: 0x100009E38, symSize: 0x4C4 }
  - { offsetInCU: 0x2226E, offset: 0x2226E, size: 0x8, addend: 0x0, symName: __ZNSt3__122__hash_key_value_typesINS_17__hash_value_typeINS_12basic_stringIcNS_11char_traitsIcEENS_9allocatorIcEEEES7_EEE9__get_keyB8ue170006ERKNS_4pairIKS7_S7_EE, symObjAddr: 0x9CA8, symBinAddr: 0x10000A2FC, symSize: 0x14 }
  - { offsetInCU: 0x22291, offset: 0x22291, size: 0x8, addend: 0x0, symName: __ZNSt3__112__hash_tableINS_17__hash_value_typeINS_12basic_stringIcNS_11char_traitsIcEENS_9allocatorIcEEEES7_EENS_22__unordered_map_hasherIS7_S8_NS_4hashIS7_EENS_8equal_toIS7_EELb1EEENS_21__unordered_map_equalIS7_S8_SD_SB_Lb1EEENS5_IS8_EEE13hash_functionB8ue170006Ev, symObjAddr: 0x9CBC, symBinAddr: 0x10000A310, symSize: 0x28 }
  - { offsetInCU: 0x222B7, offset: 0x222B7, size: 0x8, addend: 0x0, symName: __ZNKSt3__122__unordered_map_hasherINS_12basic_stringIcNS_11char_traitsIcEENS_9allocatorIcEEEENS_17__hash_value_typeIS6_S6_EENS_4hashIS6_EENS_8equal_toIS6_EELb1EEclB8ue170006ERKS6_, symObjAddr: 0x9CE4, symBinAddr: 0x10000A338, symSize: 0x2C }
  - { offsetInCU: 0x222EC, offset: 0x222EC, size: 0x8, addend: 0x0, symName: __ZNKSt3__112__hash_tableINS_17__hash_value_typeINS_12basic_stringIcNS_11char_traitsIcEENS_9allocatorIcEEEES7_EENS_22__unordered_map_hasherIS7_S8_NS_4hashIS7_EENS_8equal_toIS7_EELb1EEENS_21__unordered_map_equalIS7_S8_SD_SB_Lb1EEENS5_IS8_EEE12bucket_countB8ue170006Ev, symObjAddr: 0x9D10, symBinAddr: 0x10000A364, symSize: 0x28 }
  - { offsetInCU: 0x22312, offset: 0x22312, size: 0x8, addend: 0x0, symName: __ZNKSt3__110unique_ptrIA_PNS_16__hash_node_baseIPNS_11__hash_nodeINS_17__hash_value_typeINS_12basic_stringIcNS_11char_traitsIcEENS_9allocatorIcEEEES9_EEPvEEEENS_25__bucket_list_deallocatorINS7_ISF_EEEEEixB8ue170006Em, symObjAddr: 0x9D38, symBinAddr: 0x10000A38C, symSize: 0x34 }
  - { offsetInCU: 0x22347, offset: 0x22347, size: 0x8, addend: 0x0, symName: __ZNKSt3__116__hash_node_baseIPNS_11__hash_nodeINS_17__hash_value_typeINS_12basic_stringIcNS_11char_traitsIcEENS_9allocatorIcEEEES8_EEPvEEE6__hashB8ue170006Ev, symObjAddr: 0x9D6C, symBinAddr: 0x10000A3C0, symSize: 0x18 }
  - { offsetInCU: 0x2236D, offset: 0x2236D, size: 0x8, addend: 0x0, symName: __ZNSt3__112__hash_tableINS_17__hash_value_typeINS_12basic_stringIcNS_11char_traitsIcEENS_9allocatorIcEEEES7_EENS_22__unordered_map_hasherIS7_S8_NS_4hashIS7_EENS_8equal_toIS7_EELb1EEENS_21__unordered_map_equalIS7_S8_SD_SB_Lb1EEENS5_IS8_EEE6key_eqB8ue170006Ev, symObjAddr: 0x9D84, symBinAddr: 0x10000A3D8, symSize: 0x28 }
  - { offsetInCU: 0x22393, offset: 0x22393, size: 0x8, addend: 0x0, symName: __ZNKSt3__121__unordered_map_equalINS_12basic_stringIcNS_11char_traitsIcEENS_9allocatorIcEEEENS_17__hash_value_typeIS6_S6_EENS_8equal_toIS6_EENS_4hashIS6_EELb1EEclB8ue170006ERKS8_RKS6_, symObjAddr: 0x9DAC, symBinAddr: 0x10000A400, symSize: 0x48 }
  - { offsetInCU: 0x223D7, offset: 0x223D7, size: 0x8, addend: 0x0, symName: __ZNSt3__112__hash_tableINS_17__hash_value_typeINS_12basic_stringIcNS_11char_traitsIcEENS_9allocatorIcEEEES7_EENS_22__unordered_map_hasherIS7_S8_NS_4hashIS7_EENS_8equal_toIS7_EELb1EEENS_21__unordered_map_equalIS7_S8_SD_SB_Lb1EEENS5_IS8_EEE21__construct_node_hashIRKNS_4pairIKS7_S7_EEJEEENS_10unique_ptrINS_11__hash_nodeIS8_PvEENS_22__hash_node_destructorINS5_ISS_EEEEEEmOT_DpOT0_, symObjAddr: 0x9DF4, symBinAddr: 0x10000A448, symSize: 0x148 }
  - { offsetInCU: 0x2244A, offset: 0x2244A, size: 0x8, addend: 0x0, symName: __ZNSt3__112__hash_tableINS_17__hash_value_typeINS_12basic_stringIcNS_11char_traitsIcEENS_9allocatorIcEEEES7_EENS_22__unordered_map_hasherIS7_S8_NS_4hashIS7_EENS_8equal_toIS7_EELb1EEENS_21__unordered_map_equalIS7_S8_SD_SB_Lb1EEENS5_IS8_EEE4sizeB8ue170006Ev, symObjAddr: 0x9F3C, symBinAddr: 0x10000A590, symSize: 0x28 }
  - { offsetInCU: 0x22470, offset: 0x22470, size: 0x8, addend: 0x0, symName: __ZNSt3__112__hash_tableINS_17__hash_value_typeINS_12basic_stringIcNS_11char_traitsIcEENS_9allocatorIcEEEES7_EENS_22__unordered_map_hasherIS7_S8_NS_4hashIS7_EENS_8equal_toIS7_EELb1EEENS_21__unordered_map_equalIS7_S8_SD_SB_Lb1EEENS5_IS8_EEE15max_load_factorB8ue170006Ev, symObjAddr: 0x9F64, symBinAddr: 0x10000A5B8, symSize: 0x28 }
  - { offsetInCU: 0x22496, offset: 0x22496, size: 0x8, addend: 0x0, symName: __ZNSt3__112__hash_tableINS_17__hash_value_typeINS_12basic_stringIcNS_11char_traitsIcEENS_9allocatorIcEEEES7_EENS_22__unordered_map_hasherIS7_S8_NS_4hashIS7_EENS_8equal_toIS7_EELb1EEENS_21__unordered_map_equalIS7_S8_SD_SB_Lb1EEENS5_IS8_EEE15__rehash_uniqueB8ue170006Em, symObjAddr: 0x9F8C, symBinAddr: 0x10000A5E0, symSize: 0x2C }
  - { offsetInCU: 0x224CB, offset: 0x224CB, size: 0x8, addend: 0x0, symName: __ZNSt3__116__hash_node_baseIPNS_11__hash_nodeINS_17__hash_value_typeINS_12basic_stringIcNS_11char_traitsIcEENS_9allocatorIcEEEES8_EEPvEEE5__ptrB8ue170006Ev, symObjAddr: 0x9FB8, symBinAddr: 0x10000A60C, symSize: 0x24 }
  - { offsetInCU: 0x224F1, offset: 0x224F1, size: 0x8, addend: 0x0, symName: __ZNKSt3__110unique_ptrINS_11__hash_nodeINS_17__hash_value_typeINS_12basic_stringIcNS_11char_traitsIcEENS_9allocatorIcEEEES8_EEPvEENS_22__hash_node_destructorINS6_ISB_EEEEEptB8ue170006Ev, symObjAddr: 0x9FDC, symBinAddr: 0x10000A630, symSize: 0x28 }
  - { offsetInCU: 0x22517, offset: 0x22517, size: 0x8, addend: 0x0, symName: __ZNKSt3__110unique_ptrINS_11__hash_nodeINS_17__hash_value_typeINS_12basic_stringIcNS_11char_traitsIcEENS_9allocatorIcEEEES8_EEPvEENS_22__hash_node_destructorINS6_ISB_EEEEE3getB8ue170006Ev, symObjAddr: 0xA004, symBinAddr: 0x10000A658, symSize: 0x28 }
  - { offsetInCU: 0x2253D, offset: 0x2253D, size: 0x8, addend: 0x0, symName: __ZNSt3__110unique_ptrINS_11__hash_nodeINS_17__hash_value_typeINS_12basic_stringIcNS_11char_traitsIcEENS_9allocatorIcEEEES8_EEPvEENS_22__hash_node_destructorINS6_ISB_EEEEE7releaseB8ue170006Ev, symObjAddr: 0xA02C, symBinAddr: 0x10000A680, symSize: 0x44 }
  - { offsetInCU: 0x22572, offset: 0x22572, size: 0x8, addend: 0x0, symName: __ZNSt3__110unique_ptrINS_11__hash_nodeINS_17__hash_value_typeINS_12basic_stringIcNS_11char_traitsIcEENS_9allocatorIcEEEES8_EEPvEENS_22__hash_node_destructorINS6_ISB_EEEEED1B8ue170006Ev, symObjAddr: 0xA070, symBinAddr: 0x10000A6C4, symSize: 0x2C }
  - { offsetInCU: 0x2259C, offset: 0x2259C, size: 0x8, addend: 0x0, symName: __ZNSt3__115__hash_iteratorIPNS_11__hash_nodeINS_17__hash_value_typeINS_12basic_stringIcNS_11char_traitsIcEENS_9allocatorIcEEEES8_EEPvEEEC1B8ue170006EPNS_16__hash_node_baseISC_EE, symObjAddr: 0xA09C, symBinAddr: 0x10000A6F0, symSize: 0x34 }
  - { offsetInCU: 0x225D5, offset: 0x225D5, size: 0x8, addend: 0x0, symName: __ZNSt3__14pairINS_15__hash_iteratorIPNS_11__hash_nodeINS_17__hash_value_typeINS_12basic_stringIcNS_11char_traitsIcEENS_9allocatorIcEEEES9_EEPvEEEEbEC1B8ue170006ERKSE_RKb, symObjAddr: 0xA0D0, symBinAddr: 0x10000A724, symSize: 0x3C }
  - { offsetInCU: 0x2261B, offset: 0x2261B, size: 0x8, addend: 0x0, symName: __ZNSt3__117__compressed_pairImNS_22__unordered_map_hasherINS_12basic_stringIcNS_11char_traitsIcEENS_9allocatorIcEEEENS_17__hash_value_typeIS7_S7_EENS_4hashIS7_EENS_8equal_toIS7_EELb1EEEE6secondB8ue170006Ev, symObjAddr: 0xA10C, symBinAddr: 0x10000A760, symSize: 0x24 }
  - { offsetInCU: 0x22641, offset: 0x22641, size: 0x8, addend: 0x0, symName: __ZNSt3__122__compressed_pair_elemINS_22__unordered_map_hasherINS_12basic_stringIcNS_11char_traitsIcEENS_9allocatorIcEEEENS_17__hash_value_typeIS7_S7_EENS_4hashIS7_EENS_8equal_toIS7_EELb1EEELi1ELb1EE5__getB8ue170006Ev, symObjAddr: 0xA130, symBinAddr: 0x10000A784, symSize: 0x14 }
  - { offsetInCU: 0x22667, offset: 0x22667, size: 0x8, addend: 0x0, symName: __ZNKSt3__113__string_hashIcNS_9allocatorIcEEEclB8ue170006ERKNS_12basic_stringIcNS_11char_traitsIcEES2_EE, symObjAddr: 0xA144, symBinAddr: 0x10000A798, symSize: 0x78 }
  - { offsetInCU: 0x2269C, offset: 0x2269C, size: 0x8, addend: 0x0, symName: __ZNKSt3__121__murmur2_or_cityhashImLm64EEclB8ue170006EPKvm, symObjAddr: 0xA1F8, symBinAddr: 0x10000A84C, symSize: 0x410 }
  - { offsetInCU: 0x22736, offset: 0x22736, size: 0x8, addend: 0x0, symName: __ZNSt3__121__murmur2_or_cityhashImLm64EE18__hash_len_0_to_16B8ue170006EPKcm, symObjAddr: 0xA608, symBinAddr: 0x10000AC5C, symSize: 0x1C0 }
  - { offsetInCU: 0x2280F, offset: 0x2280F, size: 0x8, addend: 0x0, symName: __ZNSt3__121__murmur2_or_cityhashImLm64EE19__hash_len_17_to_32B8ue170006EPKcm, symObjAddr: 0xA7C8, symBinAddr: 0x10000AE1C, symSize: 0x130 }
  - { offsetInCU: 0x22878, offset: 0x22878, size: 0x8, addend: 0x0, symName: __ZNSt3__121__murmur2_or_cityhashImLm64EE19__hash_len_33_to_64B8ue170006EPKcm, symObjAddr: 0xA8F8, symBinAddr: 0x10000AF4C, symSize: 0x2B8 }
  - { offsetInCU: 0x2292D, offset: 0x2292D, size: 0x8, addend: 0x0, symName: __ZNSt3__121__murmur2_or_cityhashImLm64EE13__hash_len_16B8ue170006Emm, symObjAddr: 0xABD0, symBinAddr: 0x10000B224, symSize: 0x80 }
  - { offsetInCU: 0x22988, offset: 0x22988, size: 0x8, addend: 0x0, symName: __ZNSt3__121__murmur2_or_cityhashImLm64EE29__weak_hash_len_32_with_seedsB8ue170006EPKcmm, symObjAddr: 0xAC50, symBinAddr: 0x10000B2A4, symSize: 0x88 }
  - { offsetInCU: 0x229C7, offset: 0x229C7, size: 0x8, addend: 0x0, symName: __ZNSt3__121__murmur2_or_cityhashImLm64EE8__rotateB8ue170006Emi, symObjAddr: 0xACD8, symBinAddr: 0x10000B32C, symSize: 0x64 }
  - { offsetInCU: 0x229F8, offset: 0x229F8, size: 0x8, addend: 0x0, symName: __ZNSt3__14pairImmEaSB8ue170006ERKS1_, symObjAddr: 0xAD3C, symBinAddr: 0x10000B390, symSize: 0x30 }
  - { offsetInCU: 0x22A2C, offset: 0x22A2C, size: 0x8, addend: 0x0, symName: __ZNSt3__121__murmur2_or_cityhashImLm64EE11__shift_mixB8ue170006Em, symObjAddr: 0xADA8, symBinAddr: 0x10000B3FC, symSize: 0x1C }
  - { offsetInCU: 0x22A4F, offset: 0x22A4F, size: 0x8, addend: 0x0, symName: __ZNSt3__121__murmur2_or_cityhashImLm64EE22__rotate_by_at_least_1B8ue170006Emi, symObjAddr: 0xADC4, symBinAddr: 0x10000B418, symSize: 0x38 }
  - { offsetInCU: 0x22A80, offset: 0x22A80, size: 0x8, addend: 0x0, symName: __ZNSt3__121__murmur2_or_cityhashImLm64EE29__weak_hash_len_32_with_seedsB8ue170006Emmmmmm, symObjAddr: 0xAE1C, symBinAddr: 0x10000B470, symSize: 0xD8 }
  - { offsetInCU: 0x22AF7, offset: 0x22AF7, size: 0x8, addend: 0x0, symName: __ZNSt3__14pairImmEC1B8ue170006ERKmS3_, symObjAddr: 0xAEF4, symBinAddr: 0x10000B548, symSize: 0x3C }
  - { offsetInCU: 0x22B3D, offset: 0x22B3D, size: 0x8, addend: 0x0, symName: __ZNSt3__14pairImmEC2B8ue170006ERKmS3_, symObjAddr: 0xAF30, symBinAddr: 0x10000B584, symSize: 0x34 }
  - { offsetInCU: 0x22B83, offset: 0x22B83, size: 0x8, addend: 0x0, symName: __ZNKSt3__110unique_ptrIA_PNS_16__hash_node_baseIPNS_11__hash_nodeINS_17__hash_value_typeINS_12basic_stringIcNS_11char_traitsIcEENS_9allocatorIcEEEES9_EEPvEEEENS_25__bucket_list_deallocatorINS7_ISF_EEEEE11get_deleterB8ue170006Ev, symObjAddr: 0xAF64, symBinAddr: 0x10000B5B8, symSize: 0x24 }
  - { offsetInCU: 0x22BA9, offset: 0x22BA9, size: 0x8, addend: 0x0, symName: __ZNKSt3__125__bucket_list_deallocatorINS_9allocatorIPNS_16__hash_node_baseIPNS_11__hash_nodeINS_17__hash_value_typeINS_12basic_stringIcNS_11char_traitsIcEENS1_IcEEEES9_EEPvEEEEEEE4sizeB8ue170006Ev, symObjAddr: 0xAF88, symBinAddr: 0x10000B5DC, symSize: 0x28 }
  - { offsetInCU: 0x22BCF, offset: 0x22BCF, size: 0x8, addend: 0x0, symName: __ZNKSt3__117__compressed_pairIPPNS_16__hash_node_baseIPNS_11__hash_nodeINS_17__hash_value_typeINS_12basic_stringIcNS_11char_traitsIcEENS_9allocatorIcEEEES9_EEPvEEEENS_25__bucket_list_deallocatorINS7_ISF_EEEEE6secondB8ue170006Ev, symObjAddr: 0xAFB0, symBinAddr: 0x10000B604, symSize: 0x28 }
  - { offsetInCU: 0x22BF5, offset: 0x22BF5, size: 0x8, addend: 0x0, symName: __ZNKSt3__122__compressed_pair_elemINS_25__bucket_list_deallocatorINS_9allocatorIPNS_16__hash_node_baseIPNS_11__hash_nodeINS_17__hash_value_typeINS_12basic_stringIcNS_11char_traitsIcEENS2_IcEEEESA_EEPvEEEEEEEELi1ELb0EE5__getB8ue170006Ev, symObjAddr: 0xAFD8, symBinAddr: 0x10000B62C, symSize: 0x14 }
  - { offsetInCU: 0x22C1B, offset: 0x22C1B, size: 0x8, addend: 0x0, symName: __ZNKSt3__117__compressed_pairImNS_9allocatorIPNS_16__hash_node_baseIPNS_11__hash_nodeINS_17__hash_value_typeINS_12basic_stringIcNS_11char_traitsIcEENS1_IcEEEES9_EEPvEEEEEEE5firstB8ue170006Ev, symObjAddr: 0xAFEC, symBinAddr: 0x10000B640, symSize: 0x24 }
  - { offsetInCU: 0x22C41, offset: 0x22C41, size: 0x8, addend: 0x0, symName: __ZNKSt3__117__compressed_pairIPPNS_16__hash_node_baseIPNS_11__hash_nodeINS_17__hash_value_typeINS_12basic_stringIcNS_11char_traitsIcEENS_9allocatorIcEEEES9_EEPvEEEENS_25__bucket_list_deallocatorINS7_ISF_EEEEE5firstB8ue170006Ev, symObjAddr: 0xB010, symBinAddr: 0x10000B664, symSize: 0x24 }
  - { offsetInCU: 0x22C67, offset: 0x22C67, size: 0x8, addend: 0x0, symName: __ZNKSt3__122__compressed_pair_elemIPPNS_16__hash_node_baseIPNS_11__hash_nodeINS_17__hash_value_typeINS_12basic_stringIcNS_11char_traitsIcEENS_9allocatorIcEEEES9_EEPvEEEELi0ELb0EE5__getB8ue170006Ev, symObjAddr: 0xB034, symBinAddr: 0x10000B688, symSize: 0x14 }
  - { offsetInCU: 0x22C8D, offset: 0x22C8D, size: 0x8, addend: 0x0, symName: __ZNSt3__117__compressed_pairIfNS_21__unordered_map_equalINS_12basic_stringIcNS_11char_traitsIcEENS_9allocatorIcEEEENS_17__hash_value_typeIS7_S7_EENS_8equal_toIS7_EENS_4hashIS7_EELb1EEEE6secondB8ue170006Ev, symObjAddr: 0xB048, symBinAddr: 0x10000B69C, symSize: 0x24 }
  - { offsetInCU: 0x22CB3, offset: 0x22CB3, size: 0x8, addend: 0x0, symName: __ZNSt3__122__compressed_pair_elemINS_21__unordered_map_equalINS_12basic_stringIcNS_11char_traitsIcEENS_9allocatorIcEEEENS_17__hash_value_typeIS7_S7_EENS_8equal_toIS7_EENS_4hashIS7_EELb1EEELi1ELb1EE5__getB8ue170006Ev, symObjAddr: 0xB06C, symBinAddr: 0x10000B6C0, symSize: 0x14 }
  - { offsetInCU: 0x22CD9, offset: 0x22CD9, size: 0x8, addend: 0x0, symName: __ZNKSt3__18equal_toINS_12basic_stringIcNS_11char_traitsIcEENS_9allocatorIcEEEEEclB8ue170006ERKS6_S9_, symObjAddr: 0xB080, symBinAddr: 0x10000B6D4, symSize: 0x34 }
  - { offsetInCU: 0x22D1D, offset: 0x22D1D, size: 0x8, addend: 0x0, symName: __ZNKSt3__117__hash_value_typeINS_12basic_stringIcNS_11char_traitsIcEENS_9allocatorIcEEEES6_E11__get_valueB8ue170006Ev, symObjAddr: 0xB0B4, symBinAddr: 0x10000B708, symSize: 0x14 }
  - { offsetInCU: 0x22D43, offset: 0x22D43, size: 0x8, addend: 0x0, symName: __ZNSt3__116allocator_traitsINS_9allocatorINS_11__hash_nodeINS_17__hash_value_typeINS_12basic_stringIcNS_11char_traitsIcEENS1_IcEEEES8_EEPvEEEEE8allocateB8ue170006ERSC_m, symObjAddr: 0xB210, symBinAddr: 0x10000B864, symSize: 0x2C }
  - { offsetInCU: 0x22D76, offset: 0x22D76, size: 0x8, addend: 0x0, symName: __ZNSt3__122__hash_node_destructorINS_9allocatorINS_11__hash_nodeINS_17__hash_value_typeINS_12basic_stringIcNS_11char_traitsIcEENS1_IcEEEES8_EEPvEEEEEC1B8ue170006ERSC_b, symObjAddr: 0xB23C, symBinAddr: 0x10000B890, symSize: 0x48 }
  - { offsetInCU: 0x22DC4, offset: 0x22DC4, size: 0x8, addend: 0x0, symName: __ZNSt3__110unique_ptrINS_11__hash_nodeINS_17__hash_value_typeINS_12basic_stringIcNS_11char_traitsIcEENS_9allocatorIcEEEES8_EEPvEENS_22__hash_node_destructorINS6_ISB_EEEEEC1B8ue170006ILb1EvEEPSB_NS_16__dependent_typeINS_27__unique_ptr_deleter_sfinaeISE_EEXT_EE20__good_rval_ref_typeE, symObjAddr: 0xB284, symBinAddr: 0x10000B8D8, symSize: 0x3C }
  - { offsetInCU: 0x22E15, offset: 0x22E15, size: 0x8, addend: 0x0, symName: __ZNSt3__116allocator_traitsINS_9allocatorINS_11__hash_nodeINS_17__hash_value_typeINS_12basic_stringIcNS_11char_traitsIcEENS1_IcEEEES8_EEPvEEEEE9constructB8ue170006INS_4pairIKS8_S8_EEJRKSH_EvEEvRSC_PT_DpOT0_, symObjAddr: 0xB2C0, symBinAddr: 0x10000B914, symSize: 0x34 }
  - { offsetInCU: 0x22E6C, offset: 0x22E6C, size: 0x8, addend: 0x0, symName: __ZNSt3__110unique_ptrINS_11__hash_nodeINS_17__hash_value_typeINS_12basic_stringIcNS_11char_traitsIcEENS_9allocatorIcEEEES8_EEPvEENS_22__hash_node_destructorINS6_ISB_EEEEE11get_deleterB8ue170006Ev, symObjAddr: 0xB2F4, symBinAddr: 0x10000B948, symSize: 0x24 }
  - { offsetInCU: 0x22E92, offset: 0x22E92, size: 0x8, addend: 0x0, symName: __ZNSt3__19allocatorINS_11__hash_nodeINS_17__hash_value_typeINS_12basic_stringIcNS_11char_traitsIcEENS0_IcEEEES7_EEPvEEE8allocateB8ue170006Em, symObjAddr: 0xB318, symBinAddr: 0x10000B96C, symSize: 0x84 }
  - { offsetInCU: 0x22ED0, offset: 0x22ED0, size: 0x8, addend: 0x0, symName: __ZNSt3__116allocator_traitsINS_9allocatorINS_11__hash_nodeINS_17__hash_value_typeINS_12basic_stringIcNS_11char_traitsIcEENS1_IcEEEES8_EEPvEEEEE8max_sizeB8ue170006ISC_vEEmRKSC_, symObjAddr: 0xB39C, symBinAddr: 0x10000B9F0, symSize: 0x24 }
  - { offsetInCU: 0x22EFE, offset: 0x22EFE, size: 0x8, addend: 0x0, symName: __ZNKSt3__19allocatorINS_11__hash_nodeINS_17__hash_value_typeINS_12basic_stringIcNS_11char_traitsIcEENS0_IcEEEES7_EEPvEEE8max_sizeB8ue170006Ev, symObjAddr: 0xB3C0, symBinAddr: 0x10000BA14, symSize: 0x14 }
  - { offsetInCU: 0x22F24, offset: 0x22F24, size: 0x8, addend: 0x0, symName: __ZNSt3__122__hash_node_destructorINS_9allocatorINS_11__hash_nodeINS_17__hash_value_typeINS_12basic_stringIcNS_11char_traitsIcEENS1_IcEEEES8_EEPvEEEEEC2B8ue170006ERSC_b, symObjAddr: 0xB3D4, symBinAddr: 0x10000BA28, symSize: 0x38 }
  - { offsetInCU: 0x22F6C, offset: 0x22F6C, size: 0x8, addend: 0x0, symName: __ZNSt3__110unique_ptrINS_11__hash_nodeINS_17__hash_value_typeINS_12basic_stringIcNS_11char_traitsIcEENS_9allocatorIcEEEES8_EEPvEENS_22__hash_node_destructorINS6_ISB_EEEEEC2B8ue170006ILb1EvEEPSB_NS_16__dependent_typeINS_27__unique_ptr_deleter_sfinaeISE_EEXT_EE20__good_rval_ref_typeE, symObjAddr: 0xB40C, symBinAddr: 0x10000BA60, symSize: 0x5C }
  - { offsetInCU: 0x22FBD, offset: 0x22FBD, size: 0x8, addend: 0x0, symName: __ZNSt3__117__compressed_pairIPNS_11__hash_nodeINS_17__hash_value_typeINS_12basic_stringIcNS_11char_traitsIcEENS_9allocatorIcEEEES8_EEPvEENS_22__hash_node_destructorINS6_ISB_EEEEEC1B8ue170006IRSC_SF_EEOT_OT0_, symObjAddr: 0xB468, symBinAddr: 0x10000BABC, symSize: 0x3C }
  - { offsetInCU: 0x23015, offset: 0x23015, size: 0x8, addend: 0x0, symName: __ZNSt3__117__compressed_pairIPNS_11__hash_nodeINS_17__hash_value_typeINS_12basic_stringIcNS_11char_traitsIcEENS_9allocatorIcEEEES8_EEPvEENS_22__hash_node_destructorINS6_ISB_EEEEEC2B8ue170006IRSC_SF_EEOT_OT0_, symObjAddr: 0xB4A4, symBinAddr: 0x10000BAF8, symSize: 0x48 }
  - { offsetInCU: 0x2306D, offset: 0x2306D, size: 0x8, addend: 0x0, symName: __ZNSt3__122__compressed_pair_elemIPNS_11__hash_nodeINS_17__hash_value_typeINS_12basic_stringIcNS_11char_traitsIcEENS_9allocatorIcEEEES8_EEPvEELi0ELb0EEC2B8ue170006IRSC_vEEOT_, symObjAddr: 0xB4EC, symBinAddr: 0x10000BB40, symSize: 0x24 }
  - { offsetInCU: 0x230AF, offset: 0x230AF, size: 0x8, addend: 0x0, symName: __ZNSt3__122__compressed_pair_elemINS_22__hash_node_destructorINS_9allocatorINS_11__hash_nodeINS_17__hash_value_typeINS_12basic_stringIcNS_11char_traitsIcEENS2_IcEEEES9_EEPvEEEEEELi1ELb0EEC2B8ue170006ISE_vEEOT_, symObjAddr: 0xB510, symBinAddr: 0x10000BB64, symSize: 0x24 }
  - { offsetInCU: 0x230F1, offset: 0x230F1, size: 0x8, addend: 0x0, symName: __ZNSt3__19allocatorINS_11__hash_nodeINS_17__hash_value_typeINS_12basic_stringIcNS_11char_traitsIcEENS0_IcEEEES7_EEPvEEE9constructB8ue170006INS_4pairIKS7_S7_EEJRKSF_EEEvPT_DpOT0_, symObjAddr: 0xB534, symBinAddr: 0x10000BB88, symSize: 0x30 }
  - { offsetInCU: 0x23147, offset: 0x23147, size: 0x8, addend: 0x0, symName: __ZNSt3__14pairIKNS_12basic_stringIcNS_11char_traitsIcEENS_9allocatorIcEEEES6_EC1B8ue170006ERKS8_, symObjAddr: 0xB564, symBinAddr: 0x10000BBB8, symSize: 0x34 }
  - { offsetInCU: 0x2317B, offset: 0x2317B, size: 0x8, addend: 0x0, symName: __ZNSt3__14pairIKNS_12basic_stringIcNS_11char_traitsIcEENS_9allocatorIcEEEES6_EC2B8ue170006ERKS8_, symObjAddr: 0xB598, symBinAddr: 0x10000BBEC, symSize: 0x78 }
  - { offsetInCU: 0x231AF, offset: 0x231AF, size: 0x8, addend: 0x0, symName: __ZNSt3__117__compressed_pairIPNS_11__hash_nodeINS_17__hash_value_typeINS_12basic_stringIcNS_11char_traitsIcEENS_9allocatorIcEEEES8_EEPvEENS_22__hash_node_destructorINS6_ISB_EEEEE6secondB8ue170006Ev, symObjAddr: 0xB610, symBinAddr: 0x10000BC64, symSize: 0x28 }
  - { offsetInCU: 0x231D5, offset: 0x231D5, size: 0x8, addend: 0x0, symName: __ZNSt3__122__compressed_pair_elemINS_22__hash_node_destructorINS_9allocatorINS_11__hash_nodeINS_17__hash_value_typeINS_12basic_stringIcNS_11char_traitsIcEENS2_IcEEEES9_EEPvEEEEEELi1ELb0EE5__getB8ue170006Ev, symObjAddr: 0xB638, symBinAddr: 0x10000BC8C, symSize: 0x14 }
  - { offsetInCU: 0x231FB, offset: 0x231FB, size: 0x8, addend: 0x0, symName: __ZNSt3__117__compressed_pairImNS_22__unordered_map_hasherINS_12basic_stringIcNS_11char_traitsIcEENS_9allocatorIcEEEENS_17__hash_value_typeIS7_S7_EENS_4hashIS7_EENS_8equal_toIS7_EELb1EEEE5firstB8ue170006Ev, symObjAddr: 0xB64C, symBinAddr: 0x10000BCA0, symSize: 0x24 }
  - { offsetInCU: 0x23221, offset: 0x23221, size: 0x8, addend: 0x0, symName: __ZNSt3__117__compressed_pairIfNS_21__unordered_map_equalINS_12basic_stringIcNS_11char_traitsIcEENS_9allocatorIcEEEENS_17__hash_value_typeIS7_S7_EENS_8equal_toIS7_EENS_4hashIS7_EELb1EEEE5firstB8ue170006Ev, symObjAddr: 0xB670, symBinAddr: 0x10000BCC4, symSize: 0x24 }
  - { offsetInCU: 0x23247, offset: 0x23247, size: 0x8, addend: 0x0, symName: __ZNSt3__112__hash_tableINS_17__hash_value_typeINS_12basic_stringIcNS_11char_traitsIcEENS_9allocatorIcEEEES7_EENS_22__unordered_map_hasherIS7_S8_NS_4hashIS7_EENS_8equal_toIS7_EELb1EEENS_21__unordered_map_equalIS7_S8_SD_SB_Lb1EEENS5_IS8_EEE8__rehashILb1EEEvm, symObjAddr: 0xB694, symBinAddr: 0x10000BCE8, symSize: 0x1A8 }
  - { offsetInCU: 0x23297, offset: 0x23297, size: 0x8, addend: 0x0, symName: __ZNSt3__112__hash_tableINS_17__hash_value_typeINS_12basic_stringIcNS_11char_traitsIcEENS_9allocatorIcEEEES7_EENS_22__unordered_map_hasherIS7_S8_NS_4hashIS7_EENS_8equal_toIS7_EELb1EEENS_21__unordered_map_equalIS7_S8_SD_SB_Lb1EEENS5_IS8_EEE11__do_rehashILb1EEEvm, symObjAddr: 0xB83C, symBinAddr: 0x10000BE90, symSize: 0x288 }
  - { offsetInCU: 0x2337A, offset: 0x2337A, size: 0x8, addend: 0x0, symName: __ZNSt3__110unique_ptrIA_PNS_16__hash_node_baseIPNS_11__hash_nodeINS_17__hash_value_typeINS_12basic_stringIcNS_11char_traitsIcEENS_9allocatorIcEEEES9_EEPvEEEENS_25__bucket_list_deallocatorINS7_ISF_EEEEE11get_deleterB8ue170006Ev, symObjAddr: 0xBAC4, symBinAddr: 0x10000C118, symSize: 0x24 }
  - { offsetInCU: 0x233A0, offset: 0x233A0, size: 0x8, addend: 0x0, symName: __ZNSt3__110unique_ptrIA_PNS_16__hash_node_baseIPNS_11__hash_nodeINS_17__hash_value_typeINS_12basic_stringIcNS_11char_traitsIcEENS_9allocatorIcEEEES9_EEPvEEEENS_25__bucket_list_deallocatorINS7_ISF_EEEEE5resetB8ue170006IPSF_EENS_9enable_ifIXsr28_CheckArrayPointerConversionIT_EE5valueEvE4typeESO_, symObjAddr: 0xBAE8, symBinAddr: 0x10000C13C, symSize: 0x78 }
  - { offsetInCU: 0x233ED, offset: 0x233ED, size: 0x8, addend: 0x0, symName: __ZNSt3__116allocator_traitsINS_9allocatorIPNS_16__hash_node_baseIPNS_11__hash_nodeINS_17__hash_value_typeINS_12basic_stringIcNS_11char_traitsIcEENS1_IcEEEES9_EEPvEEEEEEE8allocateB8ue170006ERSG_m, symObjAddr: 0xBB60, symBinAddr: 0x10000C1B4, symSize: 0x2C }
  - { offsetInCU: 0x23420, offset: 0x23420, size: 0x8, addend: 0x0, symName: __ZNSt3__19allocatorIPNS_16__hash_node_baseIPNS_11__hash_nodeINS_17__hash_value_typeINS_12basic_stringIcNS_11char_traitsIcEENS0_IcEEEES8_EEPvEEEEE8allocateB8ue170006Em, symObjAddr: 0xBB8C, symBinAddr: 0x10000C1E0, symSize: 0x84 }
  - { offsetInCU: 0x2345E, offset: 0x2345E, size: 0x8, addend: 0x0, symName: __ZNSt3__116allocator_traitsINS_9allocatorIPNS_16__hash_node_baseIPNS_11__hash_nodeINS_17__hash_value_typeINS_12basic_stringIcNS_11char_traitsIcEENS1_IcEEEES9_EEPvEEEEEEE8max_sizeB8ue170006ISG_vEEmRKSG_, symObjAddr: 0xBC10, symBinAddr: 0x10000C264, symSize: 0x24 }
  - { offsetInCU: 0x2348C, offset: 0x2348C, size: 0x8, addend: 0x0, symName: __ZNKSt3__19allocatorIPNS_16__hash_node_baseIPNS_11__hash_nodeINS_17__hash_value_typeINS_12basic_stringIcNS_11char_traitsIcEENS0_IcEEEES8_EEPvEEEEE8max_sizeB8ue170006Ev, symObjAddr: 0xBC34, symBinAddr: 0x10000C288, symSize: 0x14 }
  - { offsetInCU: 0x234B2, offset: 0x234B2, size: 0x8, addend: 0x0, symName: __ZNKSt3__117__compressed_pairIPNS_11__hash_nodeINS_17__hash_value_typeINS_12basic_stringIcNS_11char_traitsIcEENS_9allocatorIcEEEES8_EEPvEENS_22__hash_node_destructorINS6_ISB_EEEEE5firstB8ue170006Ev, symObjAddr: 0xBC48, symBinAddr: 0x10000C29C, symSize: 0x24 }
  - { offsetInCU: 0x234D8, offset: 0x234D8, size: 0x8, addend: 0x0, symName: __ZNKSt3__122__compressed_pair_elemIPNS_11__hash_nodeINS_17__hash_value_typeINS_12basic_stringIcNS_11char_traitsIcEENS_9allocatorIcEEEES8_EEPvEELi0ELb0EE5__getB8ue170006Ev, symObjAddr: 0xBC6C, symBinAddr: 0x10000C2C0, symSize: 0x14 }
  - { offsetInCU: 0x234FE, offset: 0x234FE, size: 0x8, addend: 0x0, symName: __ZNSt3__117__compressed_pairIPNS_11__hash_nodeINS_17__hash_value_typeINS_12basic_stringIcNS_11char_traitsIcEENS_9allocatorIcEEEES8_EEPvEENS_22__hash_node_destructorINS6_ISB_EEEEE5firstB8ue170006Ev, symObjAddr: 0xBC80, symBinAddr: 0x10000C2D4, symSize: 0x24 }
  - { offsetInCU: 0x23524, offset: 0x23524, size: 0x8, addend: 0x0, symName: __ZNSt3__122__compressed_pair_elemIPNS_11__hash_nodeINS_17__hash_value_typeINS_12basic_stringIcNS_11char_traitsIcEENS_9allocatorIcEEEES8_EEPvEELi0ELb0EE5__getB8ue170006Ev, symObjAddr: 0xBCA4, symBinAddr: 0x10000C2F8, symSize: 0x14 }
  - { offsetInCU: 0x2354A, offset: 0x2354A, size: 0x8, addend: 0x0, symName: __ZNSt3__110unique_ptrINS_11__hash_nodeINS_17__hash_value_typeINS_12basic_stringIcNS_11char_traitsIcEENS_9allocatorIcEEEES8_EEPvEENS_22__hash_node_destructorINS6_ISB_EEEEED2B8ue170006Ev, symObjAddr: 0xBCB8, symBinAddr: 0x10000C30C, symSize: 0x30 }
  - { offsetInCU: 0x23574, offset: 0x23574, size: 0x8, addend: 0x0, symName: __ZNSt3__110unique_ptrINS_11__hash_nodeINS_17__hash_value_typeINS_12basic_stringIcNS_11char_traitsIcEENS_9allocatorIcEEEES8_EEPvEENS_22__hash_node_destructorINS6_ISB_EEEEE5resetB8ue170006EPSB_, symObjAddr: 0xBCE8, symBinAddr: 0x10000C33C, symSize: 0x78 }
  - { offsetInCU: 0x235B8, offset: 0x235B8, size: 0x8, addend: 0x0, symName: __ZNSt3__122__hash_node_destructorINS_9allocatorINS_11__hash_nodeINS_17__hash_value_typeINS_12basic_stringIcNS_11char_traitsIcEENS1_IcEEEES8_EEPvEEEEEclB8ue170006EPSB_, symObjAddr: 0xBD60, symBinAddr: 0x10000C3B4, symSize: 0xAC }
  - { offsetInCU: 0x235ED, offset: 0x235ED, size: 0x8, addend: 0x0, symName: __ZNSt3__115__hash_iteratorIPNS_11__hash_nodeINS_17__hash_value_typeINS_12basic_stringIcNS_11char_traitsIcEENS_9allocatorIcEEEES8_EEPvEEEC2B8ue170006EPNS_16__hash_node_baseISC_EE, symObjAddr: 0xBE0C, symBinAddr: 0x10000C460, symSize: 0x20 }
  - { offsetInCU: 0x23626, offset: 0x23626, size: 0x8, addend: 0x0, symName: __ZNSt3__14pairINS_15__hash_iteratorIPNS_11__hash_nodeINS_17__hash_value_typeINS_12basic_stringIcNS_11char_traitsIcEENS_9allocatorIcEEEES9_EEPvEEEEbEC2B8ue170006ERKSE_RKb, symObjAddr: 0xBE2C, symBinAddr: 0x10000C480, symSize: 0x38 }
  - { offsetInCU: 0x2366C, offset: 0x2366C, size: 0x8, addend: 0x0, symName: __ZNSt3__14pairINS_19__hash_map_iteratorINS_15__hash_iteratorIPNS_11__hash_nodeINS_17__hash_value_typeINS_12basic_stringIcNS_11char_traitsIcEENS_9allocatorIcEEEESA_EEPvEEEEEEbEC2B8ue170006ISF_bEERKNS0_IT_T0_EE, symObjAddr: 0xBE64, symBinAddr: 0x10000C4B8, symSize: 0x50 }
  - { offsetInCU: 0x236B6, offset: 0x236B6, size: 0x8, addend: 0x0, symName: __ZNSt3__119__hash_map_iteratorINS_15__hash_iteratorIPNS_11__hash_nodeINS_17__hash_value_typeINS_12basic_stringIcNS_11char_traitsIcEENS_9allocatorIcEEEES9_EEPvEEEEEC1B8ue170006ESE_, symObjAddr: 0xBEB4, symBinAddr: 0x10000C508, symSize: 0x34 }
  - { offsetInCU: 0x236EF, offset: 0x236EF, size: 0x8, addend: 0x0, symName: __ZNSt3__119__hash_map_iteratorINS_15__hash_iteratorIPNS_11__hash_nodeINS_17__hash_value_typeINS_12basic_stringIcNS_11char_traitsIcEENS_9allocatorIcEEEES9_EEPvEEEEEC2B8ue170006ESE_, symObjAddr: 0xBEE8, symBinAddr: 0x10000C53C, symSize: 0x20 }
  - { offsetInCU: 0x23728, offset: 0x23728, size: 0x8, addend: 0x0, symName: __ZNSt3__14pairINS_12basic_stringIcNS_11char_traitsIcEENS_9allocatorIcEEEES6_EC1B8ue170006ERKS6_S9_, symObjAddr: 0xBF08, symBinAddr: 0x10000C55C, symSize: 0x3C }
  - { offsetInCU: 0x2376E, offset: 0x2376E, size: 0x8, addend: 0x0, symName: __ZNSt3__14pairINS_12basic_stringIcNS_11char_traitsIcEENS_9allocatorIcEEEES6_EC2B8ue170006ERKS6_S9_, symObjAddr: 0xBF44, symBinAddr: 0x10000C598, symSize: 0x78 }
  - { offsetInCU: 0x237B4, offset: 0x237B4, size: 0x8, addend: 0x0, symName: __ZNSt3__14pairIKNS_12basic_stringIcNS_11char_traitsIcEENS_9allocatorIcEEEES6_EC2B8ue170006IS6_S6_EERKNS0_IT_T0_EE, symObjAddr: 0xBFBC, symBinAddr: 0x10000C610, symSize: 0x78 }
  - { offsetInCU: 0x237FE, offset: 0x237FE, size: 0x8, addend: 0x0, symName: __ZNSt3__14pairIKNS_12basic_stringIcNS_11char_traitsIcEENS_9allocatorIcEEEES6_ED2Ev, symObjAddr: 0xC034, symBinAddr: 0x10000C688, symSize: 0x68 }
  - { offsetInCU: 0x2382A, offset: 0x2382A, size: 0x8, addend: 0x0, symName: __ZNSt3__14pairINS_12basic_stringIcNS_11char_traitsIcEENS_9allocatorIcEEEES6_ED2Ev, symObjAddr: 0xC09C, symBinAddr: 0x10000C6F0, symSize: 0x68 }
  - { offsetInCU: 0x23856, offset: 0x23856, size: 0x8, addend: 0x0, symName: __ZNSt3__16__treeINS_12__value_typeINS_12basic_stringIcNS_11char_traitsIcEENS_9allocatorIcEEEE14LocationConfigEENS_19__map_value_compareIS7_S9_NS_4lessIS7_EELb1EEENS5_IS9_EEE15__insert_uniqueB8ue170006ERKNS_4pairIKS7_S8_EE, symObjAddr: 0xC104, symBinAddr: 0x10000C758, symSize: 0x50 }
  - { offsetInCU: 0x2388B, offset: 0x2388B, size: 0x8, addend: 0x0, symName: __ZNSt3__14pairINS_14__map_iteratorINS_15__tree_iteratorINS_12__value_typeINS_12basic_stringIcNS_11char_traitsIcEENS_9allocatorIcEEEE14LocationConfigEEPNS_11__tree_nodeISB_PvEElEEEEbEC1B8ue170006ISG_bEERKNS0_IT_T0_EE, symObjAddr: 0xC154, symBinAddr: 0x10000C7A8, symSize: 0x34 }
  - { offsetInCU: 0x238D5, offset: 0x238D5, size: 0x8, addend: 0x0, symName: __ZNSt3__16__treeINS_12__value_typeINS_12basic_stringIcNS_11char_traitsIcEENS_9allocatorIcEEEE14LocationConfigEENS_19__map_value_compareIS7_S9_NS_4lessIS7_EELb1EEENS5_IS9_EEE25__emplace_unique_key_argsIS7_JRKNS_4pairIKS7_S8_EEEEENSH_INS_15__tree_iteratorIS9_PNS_11__tree_nodeIS9_PvEElEEbEERKT_DpOT0_, symObjAddr: 0xC188, symBinAddr: 0x10000C7DC, symSize: 0xF0 }
  - { offsetInCU: 0x23981, offset: 0x23981, size: 0x8, addend: 0x0, symName: __ZNSt3__122__tree_key_value_typesINS_12__value_typeINS_12basic_stringIcNS_11char_traitsIcEENS_9allocatorIcEEEE14LocationConfigEEE9__get_keyB8ue170006IKNS_4pairIKS7_S8_EEEENS_9enable_ifIXsr17__is_same_uncvrefIT_SE_EE5valueERSD_E4typeERSH_, symObjAddr: 0xC278, symBinAddr: 0x10000C8CC, symSize: 0x14 }
  - { offsetInCU: 0x239AE, offset: 0x239AE, size: 0x8, addend: 0x0, symName: __ZNSt3__16__treeINS_12__value_typeINS_12basic_stringIcNS_11char_traitsIcEENS_9allocatorIcEEEE14LocationConfigEENS_19__map_value_compareIS7_S9_NS_4lessIS7_EELb1EEENS5_IS9_EEE12__find_equalIS7_EERPNS_16__tree_node_baseIPvEERPNS_15__tree_end_nodeISK_EERKT_, symObjAddr: 0xC28C, symBinAddr: 0x10000C8E0, symSize: 0x184 }
  - { offsetInCU: 0x23A1B, offset: 0x23A1B, size: 0x8, addend: 0x0, symName: __ZNSt3__16__treeINS_12__value_typeINS_12basic_stringIcNS_11char_traitsIcEENS_9allocatorIcEEEE14LocationConfigEENS_19__map_value_compareIS7_S9_NS_4lessIS7_EELb1EEENS5_IS9_EEE16__construct_nodeIJRKNS_4pairIKS7_S8_EEEEENS_10unique_ptrINS_11__tree_nodeIS9_PvEENS_22__tree_node_destructorINS5_ISP_EEEEEEDpOT_, symObjAddr: 0xC410, symBinAddr: 0x10000CA64, symSize: 0x118 }
  - { offsetInCU: 0x23A7C, offset: 0x23A7C, size: 0x8, addend: 0x0, symName: __ZNSt3__16__treeINS_12__value_typeINS_12basic_stringIcNS_11char_traitsIcEENS_9allocatorIcEEEE14LocationConfigEENS_19__map_value_compareIS7_S9_NS_4lessIS7_EELb1EEENS5_IS9_EEE16__insert_node_atEPNS_15__tree_end_nodeIPNS_16__tree_node_baseIPvEEEERSK_SK_, symObjAddr: 0xC528, symBinAddr: 0x10000CB7C, symSize: 0xCC }
  - { offsetInCU: 0x23AD1, offset: 0x23AD1, size: 0x8, addend: 0x0, symName: __ZNKSt3__110unique_ptrINS_11__tree_nodeINS_12__value_typeINS_12basic_stringIcNS_11char_traitsIcEENS_9allocatorIcEEEE14LocationConfigEEPvEENS_22__tree_node_destructorINS6_ISC_EEEEE3getB8ue170006Ev, symObjAddr: 0xC5F4, symBinAddr: 0x10000CC48, symSize: 0x28 }
  - { offsetInCU: 0x23AF7, offset: 0x23AF7, size: 0x8, addend: 0x0, symName: __ZNSt3__110unique_ptrINS_11__tree_nodeINS_12__value_typeINS_12basic_stringIcNS_11char_traitsIcEENS_9allocatorIcEEEE14LocationConfigEEPvEENS_22__tree_node_destructorINS6_ISC_EEEEE7releaseB8ue170006Ev, symObjAddr: 0xC61C, symBinAddr: 0x10000CC70, symSize: 0x44 }
  - { offsetInCU: 0x23B2C, offset: 0x23B2C, size: 0x8, addend: 0x0, symName: __ZNSt3__110unique_ptrINS_11__tree_nodeINS_12__value_typeINS_12basic_stringIcNS_11char_traitsIcEENS_9allocatorIcEEEE14LocationConfigEEPvEENS_22__tree_node_destructorINS6_ISC_EEEEED1B8ue170006Ev, symObjAddr: 0xC660, symBinAddr: 0x10000CCB4, symSize: 0x2C }
  - { offsetInCU: 0x23B56, offset: 0x23B56, size: 0x8, addend: 0x0, symName: __ZNSt3__115__tree_iteratorINS_12__value_typeINS_12basic_stringIcNS_11char_traitsIcEENS_9allocatorIcEEEE14LocationConfigEEPNS_11__tree_nodeIS9_PvEElEC1B8ue170006ESD_, symObjAddr: 0xC68C, symBinAddr: 0x10000CCE0, symSize: 0x34 }
  - { offsetInCU: 0x23B8F, offset: 0x23B8F, size: 0x8, addend: 0x0, symName: __ZNSt3__14pairINS_15__tree_iteratorINS_12__value_typeINS_12basic_stringIcNS_11char_traitsIcEENS_9allocatorIcEEEE14LocationConfigEEPNS_11__tree_nodeISA_PvEElEEbEC1B8ue170006ERKSF_RKb, symObjAddr: 0xC6C0, symBinAddr: 0x10000CD14, symSize: 0x3C }
  - { offsetInCU: 0x23BD5, offset: 0x23BD5, size: 0x8, addend: 0x0, symName: __ZNKSt3__16__treeINS_12__value_typeINS_12basic_stringIcNS_11char_traitsIcEENS_9allocatorIcEEEE14LocationConfigEENS_19__map_value_compareIS7_S9_NS_4lessIS7_EELb1EEENS5_IS9_EEE6__rootB8ue170006Ev, symObjAddr: 0xC6FC, symBinAddr: 0x10000CD50, symSize: 0x28 }
  - { offsetInCU: 0x23BFB, offset: 0x23BFB, size: 0x8, addend: 0x0, symName: __ZNKSt3__16__treeINS_12__value_typeINS_12basic_stringIcNS_11char_traitsIcEENS_9allocatorIcEEEE14LocationConfigEENS_19__map_value_compareIS7_S9_NS_4lessIS7_EELb1EEENS5_IS9_EEE10__root_ptrB8ue170006Ev, symObjAddr: 0xC724, symBinAddr: 0x10000CD78, symSize: 0x24 }
  - { offsetInCU: 0x23C21, offset: 0x23C21, size: 0x8, addend: 0x0, symName: __ZNSt3__16__treeINS_12__value_typeINS_12basic_stringIcNS_11char_traitsIcEENS_9allocatorIcEEEE14LocationConfigEENS_19__map_value_compareIS7_S9_NS_4lessIS7_EELb1EEENS5_IS9_EEE10value_compB8ue170006Ev, symObjAddr: 0xC748, symBinAddr: 0x10000CD9C, symSize: 0x28 }
  - { offsetInCU: 0x23C47, offset: 0x23C47, size: 0x8, addend: 0x0, symName: __ZNKSt3__119__map_value_compareINS_12basic_stringIcNS_11char_traitsIcEENS_9allocatorIcEEEENS_12__value_typeIS6_14LocationConfigEENS_4lessIS6_EELb1EEclB8ue170006ERKS6_RKS9_, symObjAddr: 0xC770, symBinAddr: 0x10000CDC4, symSize: 0x50 }
  - { offsetInCU: 0x23C8B, offset: 0x23C8B, size: 0x8, addend: 0x0, symName: __ZNKSt3__119__map_value_compareINS_12basic_stringIcNS_11char_traitsIcEENS_9allocatorIcEEEENS_12__value_typeIS6_14LocationConfigEENS_4lessIS6_EELb1EEclB8ue170006ERKS9_RKS6_, symObjAddr: 0xC7C0, symBinAddr: 0x10000CE14, symSize: 0x48 }
  - { offsetInCU: 0x23CCF, offset: 0x23CCF, size: 0x8, addend: 0x0, symName: __ZNKSt3__16__treeINS_12__value_typeINS_12basic_stringIcNS_11char_traitsIcEENS_9allocatorIcEEEE14LocationConfigEENS_19__map_value_compareIS7_S9_NS_4lessIS7_EELb1EEENS5_IS9_EEE10__end_nodeB8ue170006Ev, symObjAddr: 0xC808, symBinAddr: 0x10000CE5C, symSize: 0x2C }
  - { offsetInCU: 0x23CF5, offset: 0x23CF5, size: 0x8, addend: 0x0, symName: __ZNKSt3__117__compressed_pairINS_15__tree_end_nodeIPNS_16__tree_node_baseIPvEEEENS_9allocatorINS_11__tree_nodeINS_12__value_typeINS_12basic_stringIcNS_11char_traitsIcEENS7_IcEEEE14LocationConfigEES3_EEEEE5firstB8ue170006Ev, symObjAddr: 0xC834, symBinAddr: 0x10000CE88, symSize: 0x24 }
  - { offsetInCU: 0x23D1B, offset: 0x23D1B, size: 0x8, addend: 0x0, symName: __ZNKSt3__122__compressed_pair_elemINS_15__tree_end_nodeIPNS_16__tree_node_baseIPvEEEELi0ELb0EE5__getB8ue170006Ev, symObjAddr: 0xC858, symBinAddr: 0x10000CEAC, symSize: 0x14 }
  - { offsetInCU: 0x23D41, offset: 0x23D41, size: 0x8, addend: 0x0, symName: __ZNSt3__117__compressed_pairImNS_19__map_value_compareINS_12basic_stringIcNS_11char_traitsIcEENS_9allocatorIcEEEENS_12__value_typeIS7_14LocationConfigEENS_4lessIS7_EELb1EEEE6secondB8ue170006Ev, symObjAddr: 0xC86C, symBinAddr: 0x10000CEC0, symSize: 0x24 }
  - { offsetInCU: 0x23D67, offset: 0x23D67, size: 0x8, addend: 0x0, symName: __ZNSt3__122__compressed_pair_elemINS_19__map_value_compareINS_12basic_stringIcNS_11char_traitsIcEENS_9allocatorIcEEEENS_12__value_typeIS7_14LocationConfigEENS_4lessIS7_EELb1EEELi1ELb1EE5__getB8ue170006Ev, symObjAddr: 0xC890, symBinAddr: 0x10000CEE4, symSize: 0x14 }
  - { offsetInCU: 0x23D8D, offset: 0x23D8D, size: 0x8, addend: 0x0, symName: __ZNKSt3__14lessINS_12basic_stringIcNS_11char_traitsIcEENS_9allocatorIcEEEEEclB8ue170006ERKS6_S9_, symObjAddr: 0xC8A4, symBinAddr: 0x10000CEF8, symSize: 0x34 }
  - { offsetInCU: 0x23DD1, offset: 0x23DD1, size: 0x8, addend: 0x0, symName: __ZNKSt3__112__value_typeINS_12basic_stringIcNS_11char_traitsIcEENS_9allocatorIcEEEE14LocationConfigE11__get_valueB8ue170006Ev, symObjAddr: 0xC8D8, symBinAddr: 0x10000CF2C, symSize: 0x14 }
  - { offsetInCU: 0x23DF7, offset: 0x23DF7, size: 0x8, addend: 0x0, symName: __ZNKSt3__112basic_stringIcNS_11char_traitsIcEENS_9allocatorIcEEE7compareB8ue170006ERKS5_, symObjAddr: 0xC924, symBinAddr: 0x10000CF78, symSize: 0x4C }
  - { offsetInCU: 0x23E2E, offset: 0x23E2E, size: 0x8, addend: 0x0, symName: __ZNKSt3__112basic_stringIcNS_11char_traitsIcEENS_9allocatorIcEEE7compareINS_17basic_string_viewIcS2_EELi0EEEiRKT_, symObjAddr: 0xC970, symBinAddr: 0x10000CFC4, symSize: 0x140 }
  - { offsetInCU: 0x23EB1, offset: 0x23EB1, size: 0x8, addend: 0x0, symName: __ZNKSt3__112basic_stringIcNS_11char_traitsIcEENS_9allocatorIcEEEcvNS_17basic_string_viewIcS2_EEB8ue170006Ev, symObjAddr: 0xCAB0, symBinAddr: 0x10000D104, symSize: 0x50 }
  - { offsetInCU: 0x23ED7, offset: 0x23ED7, size: 0x8, addend: 0x0, symName: __ZNKSt3__117basic_string_viewIcNS_11char_traitsIcEEE4sizeB8ue170006Ev, symObjAddr: 0xCB00, symBinAddr: 0x10000D154, symSize: 0x18 }
  - { offsetInCU: 0x23EFD, offset: 0x23EFD, size: 0x8, addend: 0x0, symName: __ZNKSt3__117basic_string_viewIcNS_11char_traitsIcEEE4dataB8ue170006Ev, symObjAddr: 0xCB18, symBinAddr: 0x10000D16C, symSize: 0x18 }
  - { offsetInCU: 0x23F23, offset: 0x23F23, size: 0x8, addend: 0x0, symName: __ZNSt3__117basic_string_viewIcNS_11char_traitsIcEEEC1B8ue170006EPKcm, symObjAddr: 0xCB30, symBinAddr: 0x10000D184, symSize: 0x3C }
  - { offsetInCU: 0x23F6B, offset: 0x23F6B, size: 0x8, addend: 0x0, symName: __ZNSt3__117basic_string_viewIcNS_11char_traitsIcEEEC2B8ue170006EPKcm, symObjAddr: 0xCB6C, symBinAddr: 0x10000D1C0, symSize: 0x2C }
  - { offsetInCU: 0x23FB3, offset: 0x23FB3, size: 0x8, addend: 0x0, symName: __ZNSt3__16__treeINS_12__value_typeINS_12basic_stringIcNS_11char_traitsIcEENS_9allocatorIcEEEE14LocationConfigEENS_19__map_value_compareIS7_S9_NS_4lessIS7_EELb1EEENS5_IS9_EEE12__node_allocB8ue170006Ev, symObjAddr: 0xCB98, symBinAddr: 0x10000D1EC, symSize: 0x28 }
  - { offsetInCU: 0x23FD9, offset: 0x23FD9, size: 0x8, addend: 0x0, symName: __ZNSt3__116allocator_traitsINS_9allocatorINS_11__tree_nodeINS_12__value_typeINS_12basic_stringIcNS_11char_traitsIcEENS1_IcEEEE14LocationConfigEEPvEEEEE8allocateB8ue170006ERSD_m, symObjAddr: 0xCBC0, symBinAddr: 0x10000D214, symSize: 0x2C }
  - { offsetInCU: 0x2400C, offset: 0x2400C, size: 0x8, addend: 0x0, symName: __ZNSt3__122__tree_node_destructorINS_9allocatorINS_11__tree_nodeINS_12__value_typeINS_12basic_stringIcNS_11char_traitsIcEENS1_IcEEEE14LocationConfigEEPvEEEEEC1B8ue170006ERSD_b, symObjAddr: 0xCBEC, symBinAddr: 0x10000D240, symSize: 0x48 }
  - { offsetInCU: 0x2405A, offset: 0x2405A, size: 0x8, addend: 0x0, symName: __ZNSt3__110unique_ptrINS_11__tree_nodeINS_12__value_typeINS_12basic_stringIcNS_11char_traitsIcEENS_9allocatorIcEEEE14LocationConfigEEPvEENS_22__tree_node_destructorINS6_ISC_EEEEEC1B8ue170006ILb1EvEEPSC_NS_16__dependent_typeINS_27__unique_ptr_deleter_sfinaeISF_EEXT_EE20__good_rval_ref_typeE, symObjAddr: 0xCC34, symBinAddr: 0x10000D288, symSize: 0x3C }
  - { offsetInCU: 0x240AB, offset: 0x240AB, size: 0x8, addend: 0x0, symName: __ZNSt3__116allocator_traitsINS_9allocatorINS_11__tree_nodeINS_12__value_typeINS_12basic_stringIcNS_11char_traitsIcEENS1_IcEEEE14LocationConfigEEPvEEEEE9constructB8ue170006INS_4pairIKS8_S9_EEJRKSI_EvEEvRSD_PT_DpOT0_, symObjAddr: 0xCC70, symBinAddr: 0x10000D2C4, symSize: 0x34 }
  - { offsetInCU: 0x24102, offset: 0x24102, size: 0x8, addend: 0x0, symName: __ZNSt3__122__tree_key_value_typesINS_12__value_typeINS_12basic_stringIcNS_11char_traitsIcEENS_9allocatorIcEEEE14LocationConfigEEE9__get_ptrB8ue170006ERS9_, symObjAddr: 0xCCA4, symBinAddr: 0x10000D2F8, symSize: 0x24 }
  - { offsetInCU: 0x24126, offset: 0x24126, size: 0x8, addend: 0x0, symName: __ZNKSt3__110unique_ptrINS_11__tree_nodeINS_12__value_typeINS_12basic_stringIcNS_11char_traitsIcEENS_9allocatorIcEEEE14LocationConfigEEPvEENS_22__tree_node_destructorINS6_ISC_EEEEEptB8ue170006Ev, symObjAddr: 0xCCC8, symBinAddr: 0x10000D31C, symSize: 0x28 }
  - { offsetInCU: 0x2414C, offset: 0x2414C, size: 0x8, addend: 0x0, symName: __ZNSt3__110unique_ptrINS_11__tree_nodeINS_12__value_typeINS_12basic_stringIcNS_11char_traitsIcEENS_9allocatorIcEEEE14LocationConfigEEPvEENS_22__tree_node_destructorINS6_ISC_EEEEE11get_deleterB8ue170006Ev, symObjAddr: 0xCCF0, symBinAddr: 0x10000D344, symSize: 0x24 }
  - { offsetInCU: 0x24172, offset: 0x24172, size: 0x8, addend: 0x0, symName: __ZNSt3__117__compressed_pairINS_15__tree_end_nodeIPNS_16__tree_node_baseIPvEEEENS_9allocatorINS_11__tree_nodeINS_12__value_typeINS_12basic_stringIcNS_11char_traitsIcEENS7_IcEEEE14LocationConfigEES3_EEEEE6secondB8ue170006Ev, symObjAddr: 0xCD14, symBinAddr: 0x10000D368, symSize: 0x24 }
  - { offsetInCU: 0x24198, offset: 0x24198, size: 0x8, addend: 0x0, symName: __ZNSt3__122__compressed_pair_elemINS_9allocatorINS_11__tree_nodeINS_12__value_typeINS_12basic_stringIcNS_11char_traitsIcEENS1_IcEEEE14LocationConfigEEPvEEEELi1ELb1EE5__getB8ue170006Ev, symObjAddr: 0xCD38, symBinAddr: 0x10000D38C, symSize: 0x14 }
  - { offsetInCU: 0x241BE, offset: 0x241BE, size: 0x8, addend: 0x0, symName: __ZNSt3__19allocatorINS_11__tree_nodeINS_12__value_typeINS_12basic_stringIcNS_11char_traitsIcEENS0_IcEEEE14LocationConfigEEPvEEE8allocateB8ue170006Em, symObjAddr: 0xCD4C, symBinAddr: 0x10000D3A0, symSize: 0x8C }
  - { offsetInCU: 0x241FC, offset: 0x241FC, size: 0x8, addend: 0x0, symName: __ZNSt3__116allocator_traitsINS_9allocatorINS_11__tree_nodeINS_12__value_typeINS_12basic_stringIcNS_11char_traitsIcEENS1_IcEEEE14LocationConfigEEPvEEEEE8max_sizeB8ue170006ISD_vEEmRKSD_, symObjAddr: 0xCDD8, symBinAddr: 0x10000D42C, symSize: 0x24 }
  - { offsetInCU: 0x2422A, offset: 0x2422A, size: 0x8, addend: 0x0, symName: __ZNKSt3__19allocatorINS_11__tree_nodeINS_12__value_typeINS_12basic_stringIcNS_11char_traitsIcEENS0_IcEEEE14LocationConfigEEPvEEE8max_sizeB8ue170006Ev, symObjAddr: 0xCDFC, symBinAddr: 0x10000D450, symSize: 0x20 }
  - { offsetInCU: 0x24250, offset: 0x24250, size: 0x8, addend: 0x0, symName: __ZNSt3__122__tree_node_destructorINS_9allocatorINS_11__tree_nodeINS_12__value_typeINS_12basic_stringIcNS_11char_traitsIcEENS1_IcEEEE14LocationConfigEEPvEEEEEC2B8ue170006ERSD_b, symObjAddr: 0xCE1C, symBinAddr: 0x10000D470, symSize: 0x38 }
  - { offsetInCU: 0x24298, offset: 0x24298, size: 0x8, addend: 0x0, symName: __ZNSt3__110unique_ptrINS_11__tree_nodeINS_12__value_typeINS_12basic_stringIcNS_11char_traitsIcEENS_9allocatorIcEEEE14LocationConfigEEPvEENS_22__tree_node_destructorINS6_ISC_EEEEEC2B8ue170006ILb1EvEEPSC_NS_16__dependent_typeINS_27__unique_ptr_deleter_sfinaeISF_EEXT_EE20__good_rval_ref_typeE, symObjAddr: 0xCE54, symBinAddr: 0x10000D4A8, symSize: 0x5C }
  - { offsetInCU: 0x242E9, offset: 0x242E9, size: 0x8, addend: 0x0, symName: __ZNSt3__117__compressed_pairIPNS_11__tree_nodeINS_12__value_typeINS_12basic_stringIcNS_11char_traitsIcEENS_9allocatorIcEEEE14LocationConfigEEPvEENS_22__tree_node_destructorINS6_ISC_EEEEEC1B8ue170006IRSD_SG_EEOT_OT0_, symObjAddr: 0xCEB0, symBinAddr: 0x10000D504, symSize: 0x3C }
  - { offsetInCU: 0x24341, offset: 0x24341, size: 0x8, addend: 0x0, symName: __ZNSt3__117__compressed_pairIPNS_11__tree_nodeINS_12__value_typeINS_12basic_stringIcNS_11char_traitsIcEENS_9allocatorIcEEEE14LocationConfigEEPvEENS_22__tree_node_destructorINS6_ISC_EEEEEC2B8ue170006IRSD_SG_EEOT_OT0_, symObjAddr: 0xCEEC, symBinAddr: 0x10000D540, symSize: 0x48 }
  - { offsetInCU: 0x24399, offset: 0x24399, size: 0x8, addend: 0x0, symName: __ZNSt3__122__compressed_pair_elemIPNS_11__tree_nodeINS_12__value_typeINS_12basic_stringIcNS_11char_traitsIcEENS_9allocatorIcEEEE14LocationConfigEEPvEELi0ELb0EEC2B8ue170006IRSD_vEEOT_, symObjAddr: 0xCF34, symBinAddr: 0x10000D588, symSize: 0x24 }
  - { offsetInCU: 0x243DB, offset: 0x243DB, size: 0x8, addend: 0x0, symName: __ZNSt3__122__compressed_pair_elemINS_22__tree_node_destructorINS_9allocatorINS_11__tree_nodeINS_12__value_typeINS_12basic_stringIcNS_11char_traitsIcEENS2_IcEEEE14LocationConfigEEPvEEEEEELi1ELb0EEC2B8ue170006ISF_vEEOT_, symObjAddr: 0xCF58, symBinAddr: 0x10000D5AC, symSize: 0x24 }
  - { offsetInCU: 0x2441D, offset: 0x2441D, size: 0x8, addend: 0x0, symName: __ZNSt3__19allocatorINS_11__tree_nodeINS_12__value_typeINS_12basic_stringIcNS_11char_traitsIcEENS0_IcEEEE14LocationConfigEEPvEEE9constructB8ue170006INS_4pairIKS7_S8_EEJRKSG_EEEvPT_DpOT0_, symObjAddr: 0xCF7C, symBinAddr: 0x10000D5D0, symSize: 0x30 }
  - { offsetInCU: 0x24473, offset: 0x24473, size: 0x8, addend: 0x0, symName: __ZNSt3__14pairIKNS_12basic_stringIcNS_11char_traitsIcEENS_9allocatorIcEEEE14LocationConfigEC1B8ue170006ERKS9_, symObjAddr: 0xCFAC, symBinAddr: 0x10000D600, symSize: 0x34 }
  - { offsetInCU: 0x244A7, offset: 0x244A7, size: 0x8, addend: 0x0, symName: __ZNSt3__14pairIKNS_12basic_stringIcNS_11char_traitsIcEENS_9allocatorIcEEEE14LocationConfigEC2B8ue170006ERKS9_, symObjAddr: 0xCFE0, symBinAddr: 0x10000D634, symSize: 0x78 }
  - { offsetInCU: 0x244DB, offset: 0x244DB, size: 0x8, addend: 0x0, symName: __ZN14LocationConfigC1ERKS_, symObjAddr: 0xD058, symBinAddr: 0x10000D6AC, symSize: 0x34 }
  - { offsetInCU: 0x24510, offset: 0x24510, size: 0x8, addend: 0x0, symName: __ZN14LocationConfigC2ERKS_, symObjAddr: 0xD08C, symBinAddr: 0x10000D6E0, symSize: 0x3E0 }
  - { offsetInCU: 0x24545, offset: 0x24545, size: 0x8, addend: 0x0, symName: __ZNSt3__16vectorINS_12basic_stringIcNS_11char_traitsIcEENS_9allocatorIcEEEENS4_IS6_EEEC1ERKS8_, symObjAddr: 0xD46C, symBinAddr: 0x10000DAC0, symSize: 0x34 }
  - { offsetInCU: 0x24580, offset: 0x24580, size: 0x8, addend: 0x0, symName: __ZNSt3__113unordered_mapINS_12basic_stringIcNS_11char_traitsIcEENS_9allocatorIcEEEES6_NS_4hashIS6_EENS_8equal_toIS6_EENS4_INS_4pairIKS6_S6_EEEEEC1ERKSF_, symObjAddr: 0xD4A0, symBinAddr: 0x10000DAF4, symSize: 0x34 }
  - { offsetInCU: 0x245BB, offset: 0x245BB, size: 0x8, addend: 0x0, symName: __ZNSt3__16vectorIiNS_9allocatorIiEEEC1ERKS3_, symObjAddr: 0xD4D4, symBinAddr: 0x10000DB28, symSize: 0x34 }
  - { offsetInCU: 0x245F6, offset: 0x245F6, size: 0x8, addend: 0x0, symName: __ZNSt3__16vectorINS_12basic_stringIcNS_11char_traitsIcEENS_9allocatorIcEEEENS4_IS6_EEEC2ERKS8_, symObjAddr: 0xD508, symBinAddr: 0x10000DB5C, symSize: 0x94 }
  - { offsetInCU: 0x24631, offset: 0x24631, size: 0x8, addend: 0x0, symName: __ZNSt3__116allocator_traitsINS_9allocatorINS_12basic_stringIcNS_11char_traitsIcEENS1_IcEEEEEEE37select_on_container_copy_constructionB8ue170006IS7_vvEES7_RKS7_, symObjAddr: 0xD59C, symBinAddr: 0x10000DBF0, symSize: 0x10 }
  - { offsetInCU: 0x24666, offset: 0x24666, size: 0x8, addend: 0x0, symName: __ZNSt3__117__compressed_pairIPNS_12basic_stringIcNS_11char_traitsIcEENS_9allocatorIcEEEENS4_IS6_EEEC1B8ue170006IDnS8_EEOT_OT0_, symObjAddr: 0xD5AC, symBinAddr: 0x10000DC00, symSize: 0x3C }
  - { offsetInCU: 0x246BE, offset: 0x246BE, size: 0x8, addend: 0x0, symName: __ZNSt3__16vectorINS_12basic_stringIcNS_11char_traitsIcEENS_9allocatorIcEEEENS4_IS6_EEE16__init_with_sizeB8ue170006IPS6_SA_EEvT_T0_m, symObjAddr: 0xD5E8, symBinAddr: 0x10000DC3C, symSize: 0xC0 }
  - { offsetInCU: 0x24732, offset: 0x24732, size: 0x8, addend: 0x0, symName: __ZNSt3__117__compressed_pairIPNS_12basic_stringIcNS_11char_traitsIcEENS_9allocatorIcEEEENS4_IS6_EEEC2B8ue170006IDnS8_EEOT_OT0_, symObjAddr: 0xD6A8, symBinAddr: 0x10000DCFC, symSize: 0x44 }
  - { offsetInCU: 0x2478A, offset: 0x2478A, size: 0x8, addend: 0x0, symName: __ZNSt3__122__compressed_pair_elemINS_9allocatorINS_12basic_stringIcNS_11char_traitsIcEENS1_IcEEEEEELi1ELb1EEC2B8ue170006IS7_vEEOT_, symObjAddr: 0xD6EC, symBinAddr: 0x10000DD40, symSize: 0x18 }
  - { offsetInCU: 0x247CC, offset: 0x247CC, size: 0x8, addend: 0x0, symName: __ZNSt3__16vectorINS_12basic_stringIcNS_11char_traitsIcEENS_9allocatorIcEEEENS4_IS6_EEE11__vallocateB8ue170006Em, symObjAddr: 0xD744, symBinAddr: 0x10000DD98, symSize: 0xB4 }
  - { offsetInCU: 0x24810, offset: 0x24810, size: 0x8, addend: 0x0, symName: __ZNSt3__16vectorINS_12basic_stringIcNS_11char_traitsIcEENS_9allocatorIcEEEENS4_IS6_EEE18__construct_at_endIPS6_SA_EEvT_T0_m, symObjAddr: 0xD7F8, symBinAddr: 0x10000DE4C, symSize: 0x94 }
  - { offsetInCU: 0x24886, offset: 0x24886, size: 0x8, addend: 0x0, symName: __ZNSt3__128__exception_guard_exceptionsINS_6vectorINS_12basic_stringIcNS_11char_traitsIcEENS_9allocatorIcEEEENS5_IS7_EEE16__destroy_vectorEE10__completeB8ue170006Ev, symObjAddr: 0xD88C, symBinAddr: 0x10000DEE0, symSize: 0x1C }
  - { offsetInCU: 0x248AC, offset: 0x248AC, size: 0x8, addend: 0x0, symName: __ZNSt3__128__exception_guard_exceptionsINS_6vectorINS_12basic_stringIcNS_11char_traitsIcEENS_9allocatorIcEEEENS5_IS7_EEE16__destroy_vectorEED1B8ue170006Ev, symObjAddr: 0xD8A8, symBinAddr: 0x10000DEFC, symSize: 0x2C }
  - { offsetInCU: 0x248D6, offset: 0x248D6, size: 0x8, addend: 0x0, symName: __ZNSt3__128__exception_guard_exceptionsINS_6vectorINS_12basic_stringIcNS_11char_traitsIcEENS_9allocatorIcEEEENS5_IS7_EEE16__destroy_vectorEEC1B8ue170006ESA_, symObjAddr: 0xD8D4, symBinAddr: 0x10000DF28, symSize: 0x34 }
  - { offsetInCU: 0x2490E, offset: 0x2490E, size: 0x8, addend: 0x0, symName: __ZNSt3__128__exception_guard_exceptionsINS_6vectorINS_12basic_stringIcNS_11char_traitsIcEENS_9allocatorIcEEEENS5_IS7_EEE16__destroy_vectorEEC2B8ue170006ESA_, symObjAddr: 0xD908, symBinAddr: 0x10000DF5C, symSize: 0x24 }
  - { offsetInCU: 0x24960, offset: 0x24960, size: 0x8, addend: 0x0, symName: __ZNSt3__14pairIPNS_12basic_stringIcNS_11char_traitsIcEENS_9allocatorIcEEEES7_EC1B8ue170006ERKS7_SA_, symObjAddr: 0xDBB4, symBinAddr: 0x10000E208, symSize: 0x3C }
  - { offsetInCU: 0x249A6, offset: 0x249A6, size: 0x8, addend: 0x0, symName: __ZNSt3__14pairIPNS_12basic_stringIcNS_11char_traitsIcEENS_9allocatorIcEEEES7_EC2B8ue170006ERKS7_SA_, symObjAddr: 0xDBF0, symBinAddr: 0x10000E244, symSize: 0x34 }
  - { offsetInCU: 0x249EC, offset: 0x249EC, size: 0x8, addend: 0x0, symName: __ZNSt3__129_AllocatorDestroyRangeReverseINS_9allocatorINS_12basic_stringIcNS_11char_traitsIcEENS1_IcEEEEEEPS6_EC1B8ue170006ERS7_RS8_SB_, symObjAddr: 0xDC70, symBinAddr: 0x10000E2C4, symSize: 0x44 }
  - { offsetInCU: 0x24A43, offset: 0x24A43, size: 0x8, addend: 0x0, symName: __ZNSt3__116allocator_traitsINS_9allocatorINS_12basic_stringIcNS_11char_traitsIcEENS1_IcEEEEEEE9constructB8ue170006IS6_JRS6_EvEEvRS7_PT_DpOT0_, symObjAddr: 0xDCB4, symBinAddr: 0x10000E308, symSize: 0x34 }
  - { offsetInCU: 0x24A9A, offset: 0x24A9A, size: 0x8, addend: 0x0, symName: __ZNSt3__128__exception_guard_exceptionsINS_29_AllocatorDestroyRangeReverseINS_9allocatorINS_12basic_stringIcNS_11char_traitsIcEENS2_IcEEEEEEPS7_EEE10__completeB8ue170006Ev, symObjAddr: 0xDCE8, symBinAddr: 0x10000E33C, symSize: 0x1C }
  - { offsetInCU: 0x24AC0, offset: 0x24AC0, size: 0x8, addend: 0x0, symName: __ZNSt3__128__exception_guard_exceptionsINS_29_AllocatorDestroyRangeReverseINS_9allocatorINS_12basic_stringIcNS_11char_traitsIcEENS2_IcEEEEEEPS7_EEED1B8ue170006Ev, symObjAddr: 0xDD04, symBinAddr: 0x10000E358, symSize: 0x2C }
  - { offsetInCU: 0x24AEA, offset: 0x24AEA, size: 0x8, addend: 0x0, symName: __ZNSt3__128__exception_guard_exceptionsINS_29_AllocatorDestroyRangeReverseINS_9allocatorINS_12basic_stringIcNS_11char_traitsIcEENS2_IcEEEEEEPS7_EEEC1B8ue170006ESA_, symObjAddr: 0xDD30, symBinAddr: 0x10000E384, symSize: 0x34 }
  - { offsetInCU: 0x24B23, offset: 0x24B23, size: 0x8, addend: 0x0, symName: __ZNSt3__128__exception_guard_exceptionsINS_29_AllocatorDestroyRangeReverseINS_9allocatorINS_12basic_stringIcNS_11char_traitsIcEENS2_IcEEEEEEPS7_EEEC2B8ue170006ESA_, symObjAddr: 0xDD64, symBinAddr: 0x10000E3B8, symSize: 0x30 }
  - { offsetInCU: 0x24B5C, offset: 0x24B5C, size: 0x8, addend: 0x0, symName: __ZNSt3__129_AllocatorDestroyRangeReverseINS_9allocatorINS_12basic_stringIcNS_11char_traitsIcEENS1_IcEEEEEEPS6_EC2B8ue170006ERS7_RS8_SB_, symObjAddr: 0xDD94, symBinAddr: 0x10000E3E8, symSize: 0x38 }
  - { offsetInCU: 0x24BB3, offset: 0x24BB3, size: 0x8, addend: 0x0, symName: __ZNSt3__19allocatorINS_12basic_stringIcNS_11char_traitsIcEENS0_IcEEEEE9constructB8ue170006IS5_JRS5_EEEvPT_DpOT0_, symObjAddr: 0xDDCC, symBinAddr: 0x10000E420, symSize: 0x30 }
  - { offsetInCU: 0x24C09, offset: 0x24C09, size: 0x8, addend: 0x0, symName: __ZNSt3__128__exception_guard_exceptionsINS_29_AllocatorDestroyRangeReverseINS_9allocatorINS_12basic_stringIcNS_11char_traitsIcEENS2_IcEEEEEEPS7_EEED2B8ue170006Ev, symObjAddr: 0xDDFC, symBinAddr: 0x10000E450, symSize: 0x48 }
  - { offsetInCU: 0x24C33, offset: 0x24C33, size: 0x8, addend: 0x0, symName: __ZNKSt3__129_AllocatorDestroyRangeReverseINS_9allocatorINS_12basic_stringIcNS_11char_traitsIcEENS1_IcEEEEEEPS6_EclB8ue170006Ev, symObjAddr: 0xDE44, symBinAddr: 0x10000E498, symSize: 0x68 }
  - { offsetInCU: 0x24C59, offset: 0x24C59, size: 0x8, addend: 0x0, symName: __ZNSt3__118__unwrap_iter_implIPNS_12basic_stringIcNS_11char_traitsIcEENS_9allocatorIcEEEELb1EE8__unwrapB8ue170006ES7_, symObjAddr: 0xDF1C, symBinAddr: 0x10000E570, symSize: 0x24 }
  - { offsetInCU: 0x24C7C, offset: 0x24C7C, size: 0x8, addend: 0x0, symName: __ZNSt3__118__unwrap_iter_implIPNS_12basic_stringIcNS_11char_traitsIcEENS_9allocatorIcEEEELb1EE8__rewrapB8ue170006ES7_S7_, symObjAddr: 0xDF40, symBinAddr: 0x10000E594, symSize: 0x58 }
  - { offsetInCU: 0x24CAD, offset: 0x24CAD, size: 0x8, addend: 0x0, symName: __ZNSt3__128__exception_guard_exceptionsINS_6vectorINS_12basic_stringIcNS_11char_traitsIcEENS_9allocatorIcEEEENS5_IS7_EEE16__destroy_vectorEED2B8ue170006Ev, symObjAddr: 0xDF98, symBinAddr: 0x10000E5EC, symSize: 0x48 }
  - { offsetInCU: 0x24CD7, offset: 0x24CD7, size: 0x8, addend: 0x0, symName: __ZNSt3__113unordered_mapINS_12basic_stringIcNS_11char_traitsIcEENS_9allocatorIcEEEES6_NS_4hashIS6_EENS_8equal_toIS6_EENS4_INS_4pairIKS6_S6_EEEEEC2ERKSF_, symObjAddr: 0xDFE0, symBinAddr: 0x10000E634, symSize: 0xA8 }
  - { offsetInCU: 0x24D12, offset: 0x24D12, size: 0x8, addend: 0x0, symName: __ZNSt3__112__hash_tableINS_17__hash_value_typeINS_12basic_stringIcNS_11char_traitsIcEENS_9allocatorIcEEEES7_EENS_22__unordered_map_hasherIS7_S8_NS_4hashIS7_EENS_8equal_toIS7_EELb1EEENS_21__unordered_map_equalIS7_S8_SD_SB_Lb1EEENS5_IS8_EEEC1ERKSI_, symObjAddr: 0xE088, symBinAddr: 0x10000E6DC, symSize: 0x34 }
  - { offsetInCU: 0x24D4D, offset: 0x24D4D, size: 0x8, addend: 0x0, symName: __ZNKSt3__113unordered_mapINS_12basic_stringIcNS_11char_traitsIcEENS_9allocatorIcEEEES6_NS_4hashIS6_EENS_8equal_toIS6_EENS4_INS_4pairIKS6_S6_EEEEE12bucket_countB8ue170006Ev, symObjAddr: 0xE0BC, symBinAddr: 0x10000E710, symSize: 0x24 }
  - { offsetInCU: 0x24D73, offset: 0x24D73, size: 0x8, addend: 0x0, symName: __ZNSt3__113unordered_mapINS_12basic_stringIcNS_11char_traitsIcEENS_9allocatorIcEEEES6_NS_4hashIS6_EENS_8equal_toIS6_EENS4_INS_4pairIKS6_S6_EEEEE6insertINS_25__hash_map_const_iteratorINS_21__hash_const_iteratorIPNS_11__hash_nodeINS_17__hash_value_typeIS6_S6_EEPvEEEEEEEEvT_SR_, symObjAddr: 0xE0E0, symBinAddr: 0x10000E734, symSize: 0x70 }
  - { offsetInCU: 0x24DC2, offset: 0x24DC2, size: 0x8, addend: 0x0, symName: __ZNKSt3__113unordered_mapINS_12basic_stringIcNS_11char_traitsIcEENS_9allocatorIcEEEES6_NS_4hashIS6_EENS_8equal_toIS6_EENS4_INS_4pairIKS6_S6_EEEEE5beginB8ue170006Ev, symObjAddr: 0xE150, symBinAddr: 0x10000E7A4, symSize: 0x38 }
  - { offsetInCU: 0x24DE8, offset: 0x24DE8, size: 0x8, addend: 0x0, symName: __ZNKSt3__113unordered_mapINS_12basic_stringIcNS_11char_traitsIcEENS_9allocatorIcEEEES6_NS_4hashIS6_EENS_8equal_toIS6_EENS4_INS_4pairIKS6_S6_EEEEE3endB8ue170006Ev, symObjAddr: 0xE188, symBinAddr: 0x10000E7DC, symSize: 0x38 }
  - { offsetInCU: 0x24E0E, offset: 0x24E0E, size: 0x8, addend: 0x0, symName: __ZNSt3__112__hash_tableINS_17__hash_value_typeINS_12basic_stringIcNS_11char_traitsIcEENS_9allocatorIcEEEES7_EENS_22__unordered_map_hasherIS7_S8_NS_4hashIS7_EENS_8equal_toIS7_EELb1EEENS_21__unordered_map_equalIS7_S8_SD_SB_Lb1EEENS5_IS8_EEEC2ERKSI_, symObjAddr: 0xE1C0, symBinAddr: 0x10000E814, symSize: 0xF4 }
  - { offsetInCU: 0x24E49, offset: 0x24E49, size: 0x8, addend: 0x0, symName: __ZNSt3__116allocator_traitsINS_9allocatorIPNS_16__hash_node_baseIPNS_11__hash_nodeINS_17__hash_value_typeINS_12basic_stringIcNS_11char_traitsIcEENS1_IcEEEES9_EEPvEEEEEEE37select_on_container_copy_constructionB8ue170006ISG_vvEESG_RKSG_, symObjAddr: 0xE2B4, symBinAddr: 0x10000E908, symSize: 0x10 }
  - { offsetInCU: 0x24E78, offset: 0x24E78, size: 0x8, addend: 0x0, symName: __ZNKSt3__125__bucket_list_deallocatorINS_9allocatorIPNS_16__hash_node_baseIPNS_11__hash_nodeINS_17__hash_value_typeINS_12basic_stringIcNS_11char_traitsIcEENS1_IcEEEES9_EEPvEEEEEEE7__allocB8ue170006Ev, symObjAddr: 0xE2C4, symBinAddr: 0x10000E918, symSize: 0x24 }
  - { offsetInCU: 0x24E9E, offset: 0x24E9E, size: 0x8, addend: 0x0, symName: __ZNSt3__125__bucket_list_deallocatorINS_9allocatorIPNS_16__hash_node_baseIPNS_11__hash_nodeINS_17__hash_value_typeINS_12basic_stringIcNS_11char_traitsIcEENS1_IcEEEES9_EEPvEEEEEEEC1B8ue170006ERKSG_m, symObjAddr: 0xE2E8, symBinAddr: 0x10000E93C, symSize: 0x3C }
  - { offsetInCU: 0x24EE6, offset: 0x24EE6, size: 0x8, addend: 0x0, symName: __ZNSt3__110unique_ptrIA_PNS_16__hash_node_baseIPNS_11__hash_nodeINS_17__hash_value_typeINS_12basic_stringIcNS_11char_traitsIcEENS_9allocatorIcEEEES9_EEPvEEEENS_25__bucket_list_deallocatorINS7_ISF_EEEEEC1B8ue170006ILb1EvEEDnNS_16__dependent_typeINS_27__unique_ptr_deleter_sfinaeISJ_EEXT_EE20__good_rval_ref_typeE, symObjAddr: 0xE324, symBinAddr: 0x10000E978, symSize: 0x3C }
  - { offsetInCU: 0x24F36, offset: 0x24F36, size: 0x8, addend: 0x0, symName: __ZNSt3__116allocator_traitsINS_9allocatorINS_11__hash_nodeINS_17__hash_value_typeINS_12basic_stringIcNS_11char_traitsIcEENS1_IcEEEES8_EEPvEEEEE37select_on_container_copy_constructionB8ue170006ISC_vvEESC_RKSC_, symObjAddr: 0xE360, symBinAddr: 0x10000E9B4, symSize: 0x10 }
  - { offsetInCU: 0x24F65, offset: 0x24F65, size: 0x8, addend: 0x0, symName: __ZNKSt3__112__hash_tableINS_17__hash_value_typeINS_12basic_stringIcNS_11char_traitsIcEENS_9allocatorIcEEEES7_EENS_22__unordered_map_hasherIS7_S8_NS_4hashIS7_EENS_8equal_toIS7_EELb1EEENS_21__unordered_map_equalIS7_S8_SD_SB_Lb1EEENS5_IS8_EEE12__node_allocB8ue170006Ev, symObjAddr: 0xE370, symBinAddr: 0x10000E9C4, symSize: 0x28 }
  - { offsetInCU: 0x24F91, offset: 0x24F91, size: 0x8, addend: 0x0, symName: __ZNSt3__117__compressed_pairINS_16__hash_node_baseIPNS_11__hash_nodeINS_17__hash_value_typeINS_12basic_stringIcNS_11char_traitsIcEENS_9allocatorIcEEEES9_EEPvEEEENS7_ISC_EEEC1B8ue170006INS_18__default_init_tagESF_EEOT_OT0_, symObjAddr: 0xE398, symBinAddr: 0x10000E9EC, symSize: 0x3C }
  - { offsetInCU: 0x24FE9, offset: 0x24FE9, size: 0x8, addend: 0x0, symName: __ZNKSt3__112__hash_tableINS_17__hash_value_typeINS_12basic_stringIcNS_11char_traitsIcEENS_9allocatorIcEEEES7_EENS_22__unordered_map_hasherIS7_S8_NS_4hashIS7_EENS_8equal_toIS7_EELb1EEENS_21__unordered_map_equalIS7_S8_SD_SB_Lb1EEENS5_IS8_EEE13hash_functionB8ue170006Ev, symObjAddr: 0xE3D4, symBinAddr: 0x10000EA28, symSize: 0x28 }
  - { offsetInCU: 0x2500F, offset: 0x2500F, size: 0x8, addend: 0x0, symName: __ZNSt3__117__compressed_pairImNS_22__unordered_map_hasherINS_12basic_stringIcNS_11char_traitsIcEENS_9allocatorIcEEEENS_17__hash_value_typeIS7_S7_EENS_4hashIS7_EENS_8equal_toIS7_EELb1EEEEC1B8ue170006IiRKSE_EEOT_OT0_, symObjAddr: 0xE3FC, symBinAddr: 0x10000EA50, symSize: 0x3C }
  - { offsetInCU: 0x25067, offset: 0x25067, size: 0x8, addend: 0x0, symName: __ZNKSt3__117__compressed_pairImNS_9allocatorIPNS_16__hash_node_baseIPNS_11__hash_nodeINS_17__hash_value_typeINS_12basic_stringIcNS_11char_traitsIcEENS1_IcEEEES9_EEPvEEEEEEE6secondB8ue170006Ev, symObjAddr: 0xE438, symBinAddr: 0x10000EA8C, symSize: 0x24 }
  - { offsetInCU: 0x2508D, offset: 0x2508D, size: 0x8, addend: 0x0, symName: __ZNKSt3__122__compressed_pair_elemINS_9allocatorIPNS_16__hash_node_baseIPNS_11__hash_nodeINS_17__hash_value_typeINS_12basic_stringIcNS_11char_traitsIcEENS1_IcEEEES9_EEPvEEEEEELi1ELb1EE5__getB8ue170006Ev, symObjAddr: 0xE45C, symBinAddr: 0x10000EAB0, symSize: 0x14 }
  - { offsetInCU: 0x250B3, offset: 0x250B3, size: 0x8, addend: 0x0, symName: __ZNSt3__125__bucket_list_deallocatorINS_9allocatorIPNS_16__hash_node_baseIPNS_11__hash_nodeINS_17__hash_value_typeINS_12basic_stringIcNS_11char_traitsIcEENS1_IcEEEES9_EEPvEEEEEEEC2B8ue170006ERKSG_m, symObjAddr: 0xE470, symBinAddr: 0x10000EAC4, symSize: 0x3C }
  - { offsetInCU: 0x250FB, offset: 0x250FB, size: 0x8, addend: 0x0, symName: __ZNSt3__117__compressed_pairImNS_9allocatorIPNS_16__hash_node_baseIPNS_11__hash_nodeINS_17__hash_value_typeINS_12basic_stringIcNS_11char_traitsIcEENS1_IcEEEES9_EEPvEEEEEEEC1B8ue170006IRmRKSG_EEOT_OT0_, symObjAddr: 0xE4AC, symBinAddr: 0x10000EB00, symSize: 0x3C }
  - { offsetInCU: 0x25153, offset: 0x25153, size: 0x8, addend: 0x0, symName: __ZNSt3__117__compressed_pairImNS_9allocatorIPNS_16__hash_node_baseIPNS_11__hash_nodeINS_17__hash_value_typeINS_12basic_stringIcNS_11char_traitsIcEENS1_IcEEEES9_EEPvEEEEEEEC2B8ue170006IRmRKSG_EEOT_OT0_, symObjAddr: 0xE4E8, symBinAddr: 0x10000EB3C, symSize: 0x44 }
  - { offsetInCU: 0x251AB, offset: 0x251AB, size: 0x8, addend: 0x0, symName: __ZNSt3__122__compressed_pair_elemImLi0ELb0EEC2B8ue170006IRmvEEOT_, symObjAddr: 0xE52C, symBinAddr: 0x10000EB80, symSize: 0x24 }
  - { offsetInCU: 0x251ED, offset: 0x251ED, size: 0x8, addend: 0x0, symName: __ZNSt3__122__compressed_pair_elemINS_9allocatorIPNS_16__hash_node_baseIPNS_11__hash_nodeINS_17__hash_value_typeINS_12basic_stringIcNS_11char_traitsIcEENS1_IcEEEES9_EEPvEEEEEELi1ELb1EEC2B8ue170006IRKSG_vEEOT_, symObjAddr: 0xE550, symBinAddr: 0x10000EBA4, symSize: 0x18 }
  - { offsetInCU: 0x2522F, offset: 0x2522F, size: 0x8, addend: 0x0, symName: __ZNSt3__110unique_ptrIA_PNS_16__hash_node_baseIPNS_11__hash_nodeINS_17__hash_value_typeINS_12basic_stringIcNS_11char_traitsIcEENS_9allocatorIcEEEES9_EEPvEEEENS_25__bucket_list_deallocatorINS7_ISF_EEEEEC2B8ue170006ILb1EvEEDnNS_16__dependent_typeINS_27__unique_ptr_deleter_sfinaeISJ_EEXT_EE20__good_rval_ref_typeE, symObjAddr: 0xE568, symBinAddr: 0x10000EBBC, symSize: 0x5C }
  - { offsetInCU: 0x2527F, offset: 0x2527F, size: 0x8, addend: 0x0, symName: __ZNSt3__117__compressed_pairIPPNS_16__hash_node_baseIPNS_11__hash_nodeINS_17__hash_value_typeINS_12basic_stringIcNS_11char_traitsIcEENS_9allocatorIcEEEES9_EEPvEEEENS_25__bucket_list_deallocatorINS7_ISF_EEEEEC1B8ue170006IDnSJ_EEOT_OT0_, symObjAddr: 0xE5C4, symBinAddr: 0x10000EC18, symSize: 0x3C }
  - { offsetInCU: 0x252D7, offset: 0x252D7, size: 0x8, addend: 0x0, symName: __ZNSt3__117__compressed_pairIPPNS_16__hash_node_baseIPNS_11__hash_nodeINS_17__hash_value_typeINS_12basic_stringIcNS_11char_traitsIcEENS_9allocatorIcEEEES9_EEPvEEEENS_25__bucket_list_deallocatorINS7_ISF_EEEEEC2B8ue170006IDnSJ_EEOT_OT0_, symObjAddr: 0xE600, symBinAddr: 0x10000EC54, symSize: 0x48 }
  - { offsetInCU: 0x2532F, offset: 0x2532F, size: 0x8, addend: 0x0, symName: __ZNSt3__122__compressed_pair_elemIPPNS_16__hash_node_baseIPNS_11__hash_nodeINS_17__hash_value_typeINS_12basic_stringIcNS_11char_traitsIcEENS_9allocatorIcEEEES9_EEPvEEEELi0ELb0EEC2B8ue170006IDnvEEOT_, symObjAddr: 0xE648, symBinAddr: 0x10000EC9C, symSize: 0x1C }
  - { offsetInCU: 0x25371, offset: 0x25371, size: 0x8, addend: 0x0, symName: __ZNSt3__122__compressed_pair_elemINS_25__bucket_list_deallocatorINS_9allocatorIPNS_16__hash_node_baseIPNS_11__hash_nodeINS_17__hash_value_typeINS_12basic_stringIcNS_11char_traitsIcEENS2_IcEEEESA_EEPvEEEEEEEELi1ELb0EEC2B8ue170006ISI_vEEOT_, symObjAddr: 0xE664, symBinAddr: 0x10000ECB8, symSize: 0x34 }
  - { offsetInCU: 0x253B3, offset: 0x253B3, size: 0x8, addend: 0x0, symName: __ZNSt3__125__bucket_list_deallocatorINS_9allocatorIPNS_16__hash_node_baseIPNS_11__hash_nodeINS_17__hash_value_typeINS_12basic_stringIcNS_11char_traitsIcEENS1_IcEEEES9_EEPvEEEEEEEC1B8ue170006EOSH_, symObjAddr: 0xE698, symBinAddr: 0x10000ECEC, symSize: 0x34 }
  - { offsetInCU: 0x253EC, offset: 0x253EC, size: 0x8, addend: 0x0, symName: __ZNSt3__125__bucket_list_deallocatorINS_9allocatorIPNS_16__hash_node_baseIPNS_11__hash_nodeINS_17__hash_value_typeINS_12basic_stringIcNS_11char_traitsIcEENS1_IcEEEES9_EEPvEEEEEEEC2B8ue170006EOSH_, symObjAddr: 0xE6CC, symBinAddr: 0x10000ED20, symSize: 0x48 }
  - { offsetInCU: 0x25425, offset: 0x25425, size: 0x8, addend: 0x0, symName: __ZNKSt3__117__compressed_pairINS_16__hash_node_baseIPNS_11__hash_nodeINS_17__hash_value_typeINS_12basic_stringIcNS_11char_traitsIcEENS_9allocatorIcEEEES9_EEPvEEEENS7_ISC_EEE6secondB8ue170006Ev, symObjAddr: 0xE714, symBinAddr: 0x10000ED68, symSize: 0x24 }
  - { offsetInCU: 0x2544B, offset: 0x2544B, size: 0x8, addend: 0x0, symName: __ZNKSt3__122__compressed_pair_elemINS_9allocatorINS_11__hash_nodeINS_17__hash_value_typeINS_12basic_stringIcNS_11char_traitsIcEENS1_IcEEEES8_EEPvEEEELi1ELb1EE5__getB8ue170006Ev, symObjAddr: 0xE738, symBinAddr: 0x10000ED8C, symSize: 0x14 }
  - { offsetInCU: 0x25471, offset: 0x25471, size: 0x8, addend: 0x0, symName: __ZNSt3__117__compressed_pairINS_16__hash_node_baseIPNS_11__hash_nodeINS_17__hash_value_typeINS_12basic_stringIcNS_11char_traitsIcEENS_9allocatorIcEEEES9_EEPvEEEENS7_ISC_EEEC2B8ue170006INS_18__default_init_tagESF_EEOT_OT0_, symObjAddr: 0xE74C, symBinAddr: 0x10000EDA0, symSize: 0x40 }
  - { offsetInCU: 0x254C9, offset: 0x254C9, size: 0x8, addend: 0x0, symName: __ZNSt3__122__compressed_pair_elemINS_16__hash_node_baseIPNS_11__hash_nodeINS_17__hash_value_typeINS_12basic_stringIcNS_11char_traitsIcEENS_9allocatorIcEEEES9_EEPvEEEELi0ELb0EEC2B8ue170006ENS_18__default_init_tagE, symObjAddr: 0xE78C, symBinAddr: 0x10000EDE0, symSize: 0x2C }
  - { offsetInCU: 0x254FD, offset: 0x254FD, size: 0x8, addend: 0x0, symName: __ZNSt3__122__compressed_pair_elemINS_9allocatorINS_11__hash_nodeINS_17__hash_value_typeINS_12basic_stringIcNS_11char_traitsIcEENS1_IcEEEES8_EEPvEEEELi1ELb1EEC2B8ue170006ISC_vEEOT_, symObjAddr: 0xE7B8, symBinAddr: 0x10000EE0C, symSize: 0x18 }
  - { offsetInCU: 0x2553F, offset: 0x2553F, size: 0x8, addend: 0x0, symName: __ZNKSt3__117__compressed_pairImNS_22__unordered_map_hasherINS_12basic_stringIcNS_11char_traitsIcEENS_9allocatorIcEEEENS_17__hash_value_typeIS7_S7_EENS_4hashIS7_EENS_8equal_toIS7_EELb1EEEE6secondB8ue170006Ev, symObjAddr: 0xE7D0, symBinAddr: 0x10000EE24, symSize: 0x24 }
  - { offsetInCU: 0x25565, offset: 0x25565, size: 0x8, addend: 0x0, symName: __ZNKSt3__122__compressed_pair_elemINS_22__unordered_map_hasherINS_12basic_stringIcNS_11char_traitsIcEENS_9allocatorIcEEEENS_17__hash_value_typeIS7_S7_EENS_4hashIS7_EENS_8equal_toIS7_EELb1EEELi1ELb1EE5__getB8ue170006Ev, symObjAddr: 0xE7F4, symBinAddr: 0x10000EE48, symSize: 0x14 }
  - { offsetInCU: 0x2558B, offset: 0x2558B, size: 0x8, addend: 0x0, symName: __ZNSt3__117__compressed_pairImNS_22__unordered_map_hasherINS_12basic_stringIcNS_11char_traitsIcEENS_9allocatorIcEEEENS_17__hash_value_typeIS7_S7_EENS_4hashIS7_EENS_8equal_toIS7_EELb1EEEEC2B8ue170006IiRKSE_EEOT_OT0_, symObjAddr: 0xE808, symBinAddr: 0x10000EE5C, symSize: 0x44 }
  - { offsetInCU: 0x255E3, offset: 0x255E3, size: 0x8, addend: 0x0, symName: __ZNSt3__122__compressed_pair_elemINS_22__unordered_map_hasherINS_12basic_stringIcNS_11char_traitsIcEENS_9allocatorIcEEEENS_17__hash_value_typeIS7_S7_EENS_4hashIS7_EENS_8equal_toIS7_EELb1EEELi1ELb1EEC2B8ue170006IRKSE_vEEOT_, symObjAddr: 0xE84C, symBinAddr: 0x10000EEA0, symSize: 0x18 }
  - { offsetInCU: 0x25625, offset: 0x25625, size: 0x8, addend: 0x0, symName: __ZNKSt3__125__hash_map_const_iteratorINS_21__hash_const_iteratorIPNS_11__hash_nodeINS_17__hash_value_typeINS_12basic_stringIcNS_11char_traitsIcEENS_9allocatorIcEEEES9_EEPvEEEEEdeB8ue170006Ev, symObjAddr: 0xE894, symBinAddr: 0x10000EEE8, symSize: 0x28 }
  - { offsetInCU: 0x2564B, offset: 0x2564B, size: 0x8, addend: 0x0, symName: __ZNSt3__125__hash_map_const_iteratorINS_21__hash_const_iteratorIPNS_11__hash_nodeINS_17__hash_value_typeINS_12basic_stringIcNS_11char_traitsIcEENS_9allocatorIcEEEES9_EEPvEEEEEppB8ue170006Ev, symObjAddr: 0xE8BC, symBinAddr: 0x10000EF10, symSize: 0x2C }
  - { offsetInCU: 0x25671, offset: 0x25671, size: 0x8, addend: 0x0, symName: __ZNKSt3__121__hash_const_iteratorIPNS_11__hash_nodeINS_17__hash_value_typeINS_12basic_stringIcNS_11char_traitsIcEENS_9allocatorIcEEEES8_EEPvEEEptB8ue170006Ev, symObjAddr: 0xE94C, symBinAddr: 0x10000EFA0, symSize: 0x30 }
  - { offsetInCU: 0x25697, offset: 0x25697, size: 0x8, addend: 0x0, symName: __ZNSt3__114pointer_traitsIPKNS_17__hash_value_typeINS_12basic_stringIcNS_11char_traitsIcEENS_9allocatorIcEEEES7_EEE10pointer_toB8ue170006ERS9_, symObjAddr: 0xE97C, symBinAddr: 0x10000EFD0, symSize: 0x14 }
  - { offsetInCU: 0x256BA, offset: 0x256BA, size: 0x8, addend: 0x0, symName: __ZNSt3__121__hash_const_iteratorIPNS_11__hash_nodeINS_17__hash_value_typeINS_12basic_stringIcNS_11char_traitsIcEENS_9allocatorIcEEEES8_EEPvEEEppB8ue170006Ev, symObjAddr: 0xE990, symBinAddr: 0x10000EFE4, symSize: 0x20 }
  - { offsetInCU: 0x256E0, offset: 0x256E0, size: 0x8, addend: 0x0, symName: __ZNKSt3__112__hash_tableINS_17__hash_value_typeINS_12basic_stringIcNS_11char_traitsIcEENS_9allocatorIcEEEES7_EENS_22__unordered_map_hasherIS7_S8_NS_4hashIS7_EENS_8equal_toIS7_EELb1EEENS_21__unordered_map_equalIS7_S8_SD_SB_Lb1EEENS5_IS8_EEE5beginEv, symObjAddr: 0xE9B0, symBinAddr: 0x10000F004, symSize: 0x38 }
  - { offsetInCU: 0x25708, offset: 0x25708, size: 0x8, addend: 0x0, symName: __ZNSt3__125__hash_map_const_iteratorINS_21__hash_const_iteratorIPNS_11__hash_nodeINS_17__hash_value_typeINS_12basic_stringIcNS_11char_traitsIcEENS_9allocatorIcEEEES9_EEPvEEEEEC1B8ue170006ESE_, symObjAddr: 0xE9E8, symBinAddr: 0x10000F03C, symSize: 0x34 }
  - { offsetInCU: 0x25741, offset: 0x25741, size: 0x8, addend: 0x0, symName: __ZNKSt3__117__compressed_pairINS_16__hash_node_baseIPNS_11__hash_nodeINS_17__hash_value_typeINS_12basic_stringIcNS_11char_traitsIcEENS_9allocatorIcEEEES9_EEPvEEEENS7_ISC_EEE5firstB8ue170006Ev, symObjAddr: 0xEA1C, symBinAddr: 0x10000F070, symSize: 0x24 }
  - { offsetInCU: 0x25767, offset: 0x25767, size: 0x8, addend: 0x0, symName: __ZNSt3__121__hash_const_iteratorIPNS_11__hash_nodeINS_17__hash_value_typeINS_12basic_stringIcNS_11char_traitsIcEENS_9allocatorIcEEEES8_EEPvEEEC1B8ue170006EPNS_16__hash_node_baseISC_EE, symObjAddr: 0xEA40, symBinAddr: 0x10000F094, symSize: 0x34 }
  - { offsetInCU: 0x257A0, offset: 0x257A0, size: 0x8, addend: 0x0, symName: __ZNKSt3__122__compressed_pair_elemINS_16__hash_node_baseIPNS_11__hash_nodeINS_17__hash_value_typeINS_12basic_stringIcNS_11char_traitsIcEENS_9allocatorIcEEEES9_EEPvEEEELi0ELb0EE5__getB8ue170006Ev, symObjAddr: 0xEA74, symBinAddr: 0x10000F0C8, symSize: 0x14 }
  - { offsetInCU: 0x257C6, offset: 0x257C6, size: 0x8, addend: 0x0, symName: __ZNSt3__121__hash_const_iteratorIPNS_11__hash_nodeINS_17__hash_value_typeINS_12basic_stringIcNS_11char_traitsIcEENS_9allocatorIcEEEES8_EEPvEEEC2B8ue170006EPNS_16__hash_node_baseISC_EE, symObjAddr: 0xEA88, symBinAddr: 0x10000F0DC, symSize: 0x20 }
  - { offsetInCU: 0x257FF, offset: 0x257FF, size: 0x8, addend: 0x0, symName: __ZNSt3__125__hash_map_const_iteratorINS_21__hash_const_iteratorIPNS_11__hash_nodeINS_17__hash_value_typeINS_12basic_stringIcNS_11char_traitsIcEENS_9allocatorIcEEEES9_EEPvEEEEEC2B8ue170006ESE_, symObjAddr: 0xEAA8, symBinAddr: 0x10000F0FC, symSize: 0x20 }
  - { offsetInCU: 0x25838, offset: 0x25838, size: 0x8, addend: 0x0, symName: __ZNKSt3__112__hash_tableINS_17__hash_value_typeINS_12basic_stringIcNS_11char_traitsIcEENS_9allocatorIcEEEES7_EENS_22__unordered_map_hasherIS7_S8_NS_4hashIS7_EENS_8equal_toIS7_EELb1EEENS_21__unordered_map_equalIS7_S8_SD_SB_Lb1EEENS5_IS8_EEE3endEv, symObjAddr: 0xEAC8, symBinAddr: 0x10000F11C, symSize: 0x2C }
  - { offsetInCU: 0x25860, offset: 0x25860, size: 0x8, addend: 0x0, symName: __ZNSt3__16vectorIiNS_9allocatorIiEEEC2ERKS3_, symObjAddr: 0xEAF4, symBinAddr: 0x10000F148, symSize: 0x94 }
  - { offsetInCU: 0x258A5, offset: 0x258A5, size: 0x8, addend: 0x0, symName: __ZNSt3__116allocator_traitsINS_9allocatorIiEEE37select_on_container_copy_constructionB8ue170006IS2_vvEES2_RKS2_, symObjAddr: 0xEB88, symBinAddr: 0x10000F1DC, symSize: 0x10 }
  - { offsetInCU: 0x258D4, offset: 0x258D4, size: 0x8, addend: 0x0, symName: __ZNKSt3__16vectorIiNS_9allocatorIiEEE7__allocB8ue170006Ev, symObjAddr: 0xEB98, symBinAddr: 0x10000F1EC, symSize: 0x28 }
  - { offsetInCU: 0x25900, offset: 0x25900, size: 0x8, addend: 0x0, symName: __ZNSt3__117__compressed_pairIPiNS_9allocatorIiEEEC1B8ue170006IDnS3_EEOT_OT0_, symObjAddr: 0xEBC0, symBinAddr: 0x10000F214, symSize: 0x3C }
  - { offsetInCU: 0x25958, offset: 0x25958, size: 0x8, addend: 0x0, symName: __ZNSt3__16vectorIiNS_9allocatorIiEEE16__init_with_sizeB8ue170006IPiS5_EEvT_T0_m, symObjAddr: 0xEBFC, symBinAddr: 0x10000F250, symSize: 0xC0 }
  - { offsetInCU: 0x259CC, offset: 0x259CC, size: 0x8, addend: 0x0, symName: __ZNKSt3__117__compressed_pairIPiNS_9allocatorIiEEE6secondB8ue170006Ev, symObjAddr: 0xECBC, symBinAddr: 0x10000F310, symSize: 0x24 }
  - { offsetInCU: 0x259F2, offset: 0x259F2, size: 0x8, addend: 0x0, symName: __ZNKSt3__122__compressed_pair_elemINS_9allocatorIiEELi1ELb1EE5__getB8ue170006Ev, symObjAddr: 0xECE0, symBinAddr: 0x10000F334, symSize: 0x14 }
  - { offsetInCU: 0x25A18, offset: 0x25A18, size: 0x8, addend: 0x0, symName: __ZNSt3__117__compressed_pairIPiNS_9allocatorIiEEEC2B8ue170006IDnS3_EEOT_OT0_, symObjAddr: 0xECF4, symBinAddr: 0x10000F348, symSize: 0x44 }
  - { offsetInCU: 0x25A70, offset: 0x25A70, size: 0x8, addend: 0x0, symName: __ZNSt3__122__compressed_pair_elemINS_9allocatorIiEELi1ELb1EEC2B8ue170006IS2_vEEOT_, symObjAddr: 0xED38, symBinAddr: 0x10000F38C, symSize: 0x18 }
  - { offsetInCU: 0x25AB2, offset: 0x25AB2, size: 0x8, addend: 0x0, symName: __ZNSt3__16vectorIiNS_9allocatorIiEEE11__vallocateB8ue170006Em, symObjAddr: 0xED90, symBinAddr: 0x10000F3E4, symSize: 0xAC }
  - { offsetInCU: 0x25AF6, offset: 0x25AF6, size: 0x8, addend: 0x0, symName: __ZNSt3__16vectorIiNS_9allocatorIiEEE18__construct_at_endIPiS5_EEvT_T0_m, symObjAddr: 0xEE3C, symBinAddr: 0x10000F490, symSize: 0x94 }
  - { offsetInCU: 0x25B6C, offset: 0x25B6C, size: 0x8, addend: 0x0, symName: __ZNSt3__128__exception_guard_exceptionsINS_6vectorIiNS_9allocatorIiEEE16__destroy_vectorEE10__completeB8ue170006Ev, symObjAddr: 0xEED0, symBinAddr: 0x10000F524, symSize: 0x1C }
  - { offsetInCU: 0x25B92, offset: 0x25B92, size: 0x8, addend: 0x0, symName: __ZNSt3__128__exception_guard_exceptionsINS_6vectorIiNS_9allocatorIiEEE16__destroy_vectorEED1B8ue170006Ev, symObjAddr: 0xEEEC, symBinAddr: 0x10000F540, symSize: 0x2C }
  - { offsetInCU: 0x25BBC, offset: 0x25BBC, size: 0x8, addend: 0x0, symName: __ZNSt3__128__exception_guard_exceptionsINS_6vectorIiNS_9allocatorIiEEE16__destroy_vectorEEC1B8ue170006ES5_, symObjAddr: 0xEF18, symBinAddr: 0x10000F56C, symSize: 0x34 }
  - { offsetInCU: 0x25BF4, offset: 0x25BF4, size: 0x8, addend: 0x0, symName: __ZNSt3__128__exception_guard_exceptionsINS_6vectorIiNS_9allocatorIiEEE16__destroy_vectorEEC2B8ue170006ES5_, symObjAddr: 0xEF4C, symBinAddr: 0x10000F5A0, symSize: 0x24 }
  - { offsetInCU: 0x25C2C, offset: 0x25C2C, size: 0x8, addend: 0x0, symName: __ZNKSt3__16vectorIiNS_9allocatorIiEEE8max_sizeEv, symObjAddr: 0xEF70, symBinAddr: 0x10000F5C4, symSize: 0x74 }
  - { offsetInCU: 0x25C54, offset: 0x25C54, size: 0x8, addend: 0x0, symName: __ZNKSt3__16vectorIiNS_9allocatorIiEEE20__throw_length_errorB8ue170006Ev, symObjAddr: 0xEFE4, symBinAddr: 0x10000F638, symSize: 0x1C }
  - { offsetInCU: 0x25C7A, offset: 0x25C7A, size: 0x8, addend: 0x0, symName: __ZNSt3__16vectorIiNS_9allocatorIiEEE9__end_capB8ue170006Ev, symObjAddr: 0xF040, symBinAddr: 0x10000F694, symSize: 0x28 }
  - { offsetInCU: 0x25CA0, offset: 0x25CA0, size: 0x8, addend: 0x0, symName: __ZNKSt3__16vectorIiNS_9allocatorIiEEE14__annotate_newB8ue170006Em, symObjAddr: 0xF068, symBinAddr: 0x10000F6BC, symSize: 0xAC }
  - { offsetInCU: 0x25CD5, offset: 0x25CD5, size: 0x8, addend: 0x0, symName: __ZNSt3__116allocator_traitsINS_9allocatorIiEEE8max_sizeB8ue170006IS2_vEEmRKS2_, symObjAddr: 0xF114, symBinAddr: 0x10000F768, symSize: 0x24 }
  - { offsetInCU: 0x25D03, offset: 0x25D03, size: 0x8, addend: 0x0, symName: __ZNKSt3__19allocatorIiE8max_sizeB8ue170006Ev, symObjAddr: 0xF138, symBinAddr: 0x10000F78C, symSize: 0x14 }
  - { offsetInCU: 0x25D29, offset: 0x25D29, size: 0x8, addend: 0x0, symName: __ZNSt3__19allocatorIiE8allocateB8ue170006Em, symObjAddr: 0xF14C, symBinAddr: 0x10000F7A0, symSize: 0x84 }
  - { offsetInCU: 0x25D5D, offset: 0x25D5D, size: 0x8, addend: 0x0, symName: __ZNSt3__117__compressed_pairIPiNS_9allocatorIiEEE5firstB8ue170006Ev, symObjAddr: 0xF1D0, symBinAddr: 0x10000F824, symSize: 0x24 }
  - { offsetInCU: 0x25D83, offset: 0x25D83, size: 0x8, addend: 0x0, symName: __ZNSt3__122__compressed_pair_elemIPiLi0ELb0EE5__getB8ue170006Ev, symObjAddr: 0xF1F4, symBinAddr: 0x10000F848, symSize: 0x14 }
  - { offsetInCU: 0x25DC2, offset: 0x25DC2, size: 0x8, addend: 0x0, symName: __ZNSt3__16vectorIiNS_9allocatorIiEEE21_ConstructTransactionC1B8ue170006ERS3_m, symObjAddr: 0xF208, symBinAddr: 0x10000F85C, symSize: 0x3C }
  - { offsetInCU: 0x25E0A, offset: 0x25E0A, size: 0x8, addend: 0x0, symName: __ZNSt3__16vectorIiNS_9allocatorIiEEE21_ConstructTransactionD1B8ue170006Ev, symObjAddr: 0xF2C4, symBinAddr: 0x10000F918, symSize: 0x2C }
  - { offsetInCU: 0x25E34, offset: 0x25E34, size: 0x8, addend: 0x0, symName: __ZNSt3__16vectorIiNS_9allocatorIiEEE21_ConstructTransactionC2B8ue170006ERS3_m, symObjAddr: 0xF2F0, symBinAddr: 0x10000F944, symSize: 0x44 }
  - { offsetInCU: 0x25E96, offset: 0x25E96, size: 0x8, addend: 0x0, symName: __ZNSt3__14pairIPiS1_EC1B8ue170006ERKS1_S4_, symObjAddr: 0xF53C, symBinAddr: 0x10000FB90, symSize: 0x3C }
  - { offsetInCU: 0x25EDC, offset: 0x25EDC, size: 0x8, addend: 0x0, symName: __ZNSt3__14pairIPiS1_EC2B8ue170006ERKS1_S4_, symObjAddr: 0xF578, symBinAddr: 0x10000FBCC, symSize: 0x34 }
  - { offsetInCU: 0x25F22, offset: 0x25F22, size: 0x8, addend: 0x0, symName: __ZNSt3__129_AllocatorDestroyRangeReverseINS_9allocatorIiEEPiEC1B8ue170006ERS2_RS3_S6_, symObjAddr: 0xF5F8, symBinAddr: 0x10000FC4C, symSize: 0x44 }
  - { offsetInCU: 0x25F79, offset: 0x25F79, size: 0x8, addend: 0x0, symName: __ZNSt3__116allocator_traitsINS_9allocatorIiEEE9constructB8ue170006IiJRiEvEEvRS2_PT_DpOT0_, symObjAddr: 0xF63C, symBinAddr: 0x10000FC90, symSize: 0x34 }
  - { offsetInCU: 0x25FD0, offset: 0x25FD0, size: 0x8, addend: 0x0, symName: __ZNSt3__128__exception_guard_exceptionsINS_29_AllocatorDestroyRangeReverseINS_9allocatorIiEEPiEEE10__completeB8ue170006Ev, symObjAddr: 0xF670, symBinAddr: 0x10000FCC4, symSize: 0x1C }
  - { offsetInCU: 0x25FF6, offset: 0x25FF6, size: 0x8, addend: 0x0, symName: __ZNSt3__128__exception_guard_exceptionsINS_29_AllocatorDestroyRangeReverseINS_9allocatorIiEEPiEEED1B8ue170006Ev, symObjAddr: 0xF68C, symBinAddr: 0x10000FCE0, symSize: 0x2C }
  - { offsetInCU: 0x26020, offset: 0x26020, size: 0x8, addend: 0x0, symName: __ZNSt3__128__exception_guard_exceptionsINS_29_AllocatorDestroyRangeReverseINS_9allocatorIiEEPiEEEC1B8ue170006ES5_, symObjAddr: 0xF6B8, symBinAddr: 0x10000FD0C, symSize: 0x34 }
  - { offsetInCU: 0x26059, offset: 0x26059, size: 0x8, addend: 0x0, symName: __ZNSt3__128__exception_guard_exceptionsINS_29_AllocatorDestroyRangeReverseINS_9allocatorIiEEPiEEEC2B8ue170006ES5_, symObjAddr: 0xF6EC, symBinAddr: 0x10000FD40, symSize: 0x30 }
  - { offsetInCU: 0x26092, offset: 0x26092, size: 0x8, addend: 0x0, symName: __ZNSt3__129_AllocatorDestroyRangeReverseINS_9allocatorIiEEPiEC2B8ue170006ERS2_RS3_S6_, symObjAddr: 0xF71C, symBinAddr: 0x10000FD70, symSize: 0x38 }
  - { offsetInCU: 0x260E9, offset: 0x260E9, size: 0x8, addend: 0x0, symName: __ZNSt3__19allocatorIiE9constructB8ue170006IiJRiEEEvPT_DpOT0_, symObjAddr: 0xF754, symBinAddr: 0x10000FDA8, symSize: 0x28 }
  - { offsetInCU: 0x2613F, offset: 0x2613F, size: 0x8, addend: 0x0, symName: __ZNSt3__128__exception_guard_exceptionsINS_29_AllocatorDestroyRangeReverseINS_9allocatorIiEEPiEEED2B8ue170006Ev, symObjAddr: 0xF77C, symBinAddr: 0x10000FDD0, symSize: 0x48 }
  - { offsetInCU: 0x26169, offset: 0x26169, size: 0x8, addend: 0x0, symName: __ZNKSt3__129_AllocatorDestroyRangeReverseINS_9allocatorIiEEPiEclB8ue170006Ev, symObjAddr: 0xF7C4, symBinAddr: 0x10000FE18, symSize: 0x68 }
  - { offsetInCU: 0x2618F, offset: 0x2618F, size: 0x8, addend: 0x0, symName: __ZNSt3__116reverse_iteratorIPiEC1B8ue170006ES1_, symObjAddr: 0xF89C, symBinAddr: 0x10000FEF0, symSize: 0x34 }
  - { offsetInCU: 0x261C7, offset: 0x261C7, size: 0x8, addend: 0x0, symName: __ZNSt3__116reverse_iteratorIPiEppB8ue170006Ev, symObjAddr: 0xF93C, symBinAddr: 0x10000FF90, symSize: 0x20 }
  - { offsetInCU: 0x261ED, offset: 0x261ED, size: 0x8, addend: 0x0, symName: __ZNKSt3__116reverse_iteratorIPiE4baseB8ue170006Ev, symObjAddr: 0xF95C, symBinAddr: 0x10000FFB0, symSize: 0x18 }
  - { offsetInCU: 0x26218, offset: 0x26218, size: 0x8, addend: 0x0, symName: __ZNSt3__119__to_address_helperINS_16reverse_iteratorIPiEEvE6__callB8ue170006ERKS3_, symObjAddr: 0xF974, symBinAddr: 0x10000FFC8, symSize: 0x4C }
  - { offsetInCU: 0x2623B, offset: 0x2623B, size: 0x8, addend: 0x0, symName: __ZNKSt3__116reverse_iteratorIPiEptB8ue170006Ev, symObjAddr: 0xF9C0, symBinAddr: 0x100010014, symSize: 0x24 }
  - { offsetInCU: 0x26261, offset: 0x26261, size: 0x8, addend: 0x0, symName: __ZNKSt3__116reverse_iteratorIPiEdeB8ue170006Ev, symObjAddr: 0xF9E4, symBinAddr: 0x100010038, symSize: 0x28 }
  - { offsetInCU: 0x26295, offset: 0x26295, size: 0x8, addend: 0x0, symName: __ZNSt3__116reverse_iteratorIPiEC2B8ue170006ES1_, symObjAddr: 0xFA0C, symBinAddr: 0x100010060, symSize: 0x28 }
  - { offsetInCU: 0x262CD, offset: 0x262CD, size: 0x8, addend: 0x0, symName: __ZNSt3__118__unwrap_iter_implIPiLb1EE8__unwrapB8ue170006ES1_, symObjAddr: 0xFA34, symBinAddr: 0x100010088, symSize: 0x24 }
  - { offsetInCU: 0x262F0, offset: 0x262F0, size: 0x8, addend: 0x0, symName: __ZNSt3__118__unwrap_iter_implIPiLb1EE8__rewrapB8ue170006ES1_S1_, symObjAddr: 0xFA58, symBinAddr: 0x1000100AC, symSize: 0x50 }
  - { offsetInCU: 0x26321, offset: 0x26321, size: 0x8, addend: 0x0, symName: __ZNSt3__16vectorIiNS_9allocatorIiEEE21_ConstructTransactionD2B8ue170006Ev, symObjAddr: 0xFAA8, symBinAddr: 0x1000100FC, symSize: 0x20 }
  - { offsetInCU: 0x2634B, offset: 0x2634B, size: 0x8, addend: 0x0, symName: __ZNSt3__128__exception_guard_exceptionsINS_6vectorIiNS_9allocatorIiEEE16__destroy_vectorEED2B8ue170006Ev, symObjAddr: 0xFAC8, symBinAddr: 0x10001011C, symSize: 0x48 }
  - { offsetInCU: 0x26375, offset: 0x26375, size: 0x8, addend: 0x0, symName: __ZNSt3__112__value_typeINS_12basic_stringIcNS_11char_traitsIcEENS_9allocatorIcEEEE14LocationConfigE11__get_valueB8ue170006Ev, symObjAddr: 0xFB10, symBinAddr: 0x100010164, symSize: 0x14 }
  - { offsetInCU: 0x2639B, offset: 0x2639B, size: 0x8, addend: 0x0, symName: __ZNKSt3__117__compressed_pairIPNS_11__tree_nodeINS_12__value_typeINS_12basic_stringIcNS_11char_traitsIcEENS_9allocatorIcEEEE14LocationConfigEEPvEENS_22__tree_node_destructorINS6_ISC_EEEEE5firstB8ue170006Ev, symObjAddr: 0xFB24, symBinAddr: 0x100010178, symSize: 0x24 }
  - { offsetInCU: 0x263C1, offset: 0x263C1, size: 0x8, addend: 0x0, symName: __ZNKSt3__122__compressed_pair_elemIPNS_11__tree_nodeINS_12__value_typeINS_12basic_stringIcNS_11char_traitsIcEENS_9allocatorIcEEEE14LocationConfigEEPvEELi0ELb0EE5__getB8ue170006Ev, symObjAddr: 0xFB48, symBinAddr: 0x10001019C, symSize: 0x14 }
  - { offsetInCU: 0x263E7, offset: 0x263E7, size: 0x8, addend: 0x0, symName: __ZNSt3__117__compressed_pairIPNS_11__tree_nodeINS_12__value_typeINS_12basic_stringIcNS_11char_traitsIcEENS_9allocatorIcEEEE14LocationConfigEEPvEENS_22__tree_node_destructorINS6_ISC_EEEEE6secondB8ue170006Ev, symObjAddr: 0xFB5C, symBinAddr: 0x1000101B0, symSize: 0x28 }
  - { offsetInCU: 0x2640D, offset: 0x2640D, size: 0x8, addend: 0x0, symName: __ZNSt3__122__compressed_pair_elemINS_22__tree_node_destructorINS_9allocatorINS_11__tree_nodeINS_12__value_typeINS_12basic_stringIcNS_11char_traitsIcEENS2_IcEEEE14LocationConfigEEPvEEEEEELi1ELb0EE5__getB8ue170006Ev, symObjAddr: 0xFB84, symBinAddr: 0x1000101D8, symSize: 0x14 }
  - { offsetInCU: 0x26433, offset: 0x26433, size: 0x8, addend: 0x0, symName: __ZNSt3__16__treeINS_12__value_typeINS_12basic_stringIcNS_11char_traitsIcEENS_9allocatorIcEEEE14LocationConfigEENS_19__map_value_compareIS7_S9_NS_4lessIS7_EELb1EEENS5_IS9_EEE4sizeB8ue170006Ev, symObjAddr: 0xFED8, symBinAddr: 0x10001052C, symSize: 0x28 }
  - { offsetInCU: 0x26459, offset: 0x26459, size: 0x8, addend: 0x0, symName: __ZNKSt3__116__tree_node_baseIPvE15__parent_unsafeB8ue170006Ev, symObjAddr: 0xFF00, symBinAddr: 0x100010554, symSize: 0x18 }
  - { offsetInCU: 0x2647F, offset: 0x2647F, size: 0x8, addend: 0x0, symName: __ZNSt3__116__tree_node_baseIPvE12__set_parentB8ue170006EPS2_, symObjAddr: 0x100FC, symBinAddr: 0x100010750, symSize: 0x20 }
  - { offsetInCU: 0x264B4, offset: 0x264B4, size: 0x8, addend: 0x0, symName: __ZNSt3__117__compressed_pairImNS_19__map_value_compareINS_12basic_stringIcNS_11char_traitsIcEENS_9allocatorIcEEEENS_12__value_typeIS7_14LocationConfigEENS_4lessIS7_EELb1EEEE5firstB8ue170006Ev, symObjAddr: 0x1011C, symBinAddr: 0x100010770, symSize: 0x24 }
  - { offsetInCU: 0x264DA, offset: 0x264DA, size: 0x8, addend: 0x0, symName: __ZNSt3__117__compressed_pairIPNS_11__tree_nodeINS_12__value_typeINS_12basic_stringIcNS_11char_traitsIcEENS_9allocatorIcEEEE14LocationConfigEEPvEENS_22__tree_node_destructorINS6_ISC_EEEEE5firstB8ue170006Ev, symObjAddr: 0x10140, symBinAddr: 0x100010794, symSize: 0x24 }
  - { offsetInCU: 0x26500, offset: 0x26500, size: 0x8, addend: 0x0, symName: __ZNSt3__122__compressed_pair_elemIPNS_11__tree_nodeINS_12__value_typeINS_12basic_stringIcNS_11char_traitsIcEENS_9allocatorIcEEEE14LocationConfigEEPvEELi0ELb0EE5__getB8ue170006Ev, symObjAddr: 0x10164, symBinAddr: 0x1000107B8, symSize: 0x14 }
  - { offsetInCU: 0x26526, offset: 0x26526, size: 0x8, addend: 0x0, symName: __ZNSt3__110unique_ptrINS_11__tree_nodeINS_12__value_typeINS_12basic_stringIcNS_11char_traitsIcEENS_9allocatorIcEEEE14LocationConfigEEPvEENS_22__tree_node_destructorINS6_ISC_EEEEED2B8ue170006Ev, symObjAddr: 0x10178, symBinAddr: 0x1000107CC, symSize: 0x30 }
  - { offsetInCU: 0x26550, offset: 0x26550, size: 0x8, addend: 0x0, symName: __ZNSt3__110unique_ptrINS_11__tree_nodeINS_12__value_typeINS_12basic_stringIcNS_11char_traitsIcEENS_9allocatorIcEEEE14LocationConfigEEPvEENS_22__tree_node_destructorINS6_ISC_EEEEE5resetB8ue170006EPSC_, symObjAddr: 0x101A8, symBinAddr: 0x1000107FC, symSize: 0x78 }
  - { offsetInCU: 0x26594, offset: 0x26594, size: 0x8, addend: 0x0, symName: __ZNSt3__122__tree_node_destructorINS_9allocatorINS_11__tree_nodeINS_12__value_typeINS_12basic_stringIcNS_11char_traitsIcEENS1_IcEEEE14LocationConfigEEPvEEEEEclB8ue170006EPSC_, symObjAddr: 0x10220, symBinAddr: 0x100010874, symSize: 0xAC }
  - { offsetInCU: 0x265C9, offset: 0x265C9, size: 0x8, addend: 0x0, symName: __ZNSt3__116allocator_traitsINS_9allocatorINS_11__tree_nodeINS_12__value_typeINS_12basic_stringIcNS_11char_traitsIcEENS1_IcEEEE14LocationConfigEEPvEEEEE7destroyB8ue170006INS_4pairIKS8_S9_EEvvEEvRSD_PT_, symObjAddr: 0x102CC, symBinAddr: 0x100010920, symSize: 0x28 }
  - { offsetInCU: 0x26604, offset: 0x26604, size: 0x8, addend: 0x0, symName: __ZNSt3__116allocator_traitsINS_9allocatorINS_11__tree_nodeINS_12__value_typeINS_12basic_stringIcNS_11char_traitsIcEENS1_IcEEEE14LocationConfigEEPvEEEEE10deallocateB8ue170006ERSD_PSC_m, symObjAddr: 0x102F4, symBinAddr: 0x100010948, symSize: 0x34 }
  - { offsetInCU: 0x26646, offset: 0x26646, size: 0x8, addend: 0x0, symName: __ZNSt3__19allocatorINS_11__tree_nodeINS_12__value_typeINS_12basic_stringIcNS_11char_traitsIcEENS0_IcEEEE14LocationConfigEEPvEEE10deallocateB8ue170006EPSB_m, symObjAddr: 0x10328, symBinAddr: 0x10001097C, symSize: 0x74 }
  - { offsetInCU: 0x26688, offset: 0x26688, size: 0x8, addend: 0x0, symName: __ZNSt3__115__tree_iteratorINS_12__value_typeINS_12basic_stringIcNS_11char_traitsIcEENS_9allocatorIcEEEE14LocationConfigEEPNS_11__tree_nodeIS9_PvEElEC2B8ue170006ESD_, symObjAddr: 0x1039C, symBinAddr: 0x1000109F0, symSize: 0x20 }
  - { offsetInCU: 0x266C1, offset: 0x266C1, size: 0x8, addend: 0x0, symName: __ZNSt3__14pairINS_15__tree_iteratorINS_12__value_typeINS_12basic_stringIcNS_11char_traitsIcEENS_9allocatorIcEEEE14LocationConfigEEPNS_11__tree_nodeISA_PvEElEEbEC2B8ue170006ERKSF_RKb, symObjAddr: 0x103BC, symBinAddr: 0x100010A10, symSize: 0x38 }
  - { offsetInCU: 0x26707, offset: 0x26707, size: 0x8, addend: 0x0, symName: __ZNSt3__14pairINS_14__map_iteratorINS_15__tree_iteratorINS_12__value_typeINS_12basic_stringIcNS_11char_traitsIcEENS_9allocatorIcEEEE14LocationConfigEEPNS_11__tree_nodeISB_PvEElEEEEbEC2B8ue170006ISG_bEERKNS0_IT_T0_EE, symObjAddr: 0x103F4, symBinAddr: 0x100010A48, symSize: 0x50 }
  - { offsetInCU: 0x26751, offset: 0x26751, size: 0x8, addend: 0x0, symName: __ZNSt3__114__map_iteratorINS_15__tree_iteratorINS_12__value_typeINS_12basic_stringIcNS_11char_traitsIcEENS_9allocatorIcEEEE14LocationConfigEEPNS_11__tree_nodeISA_PvEElEEEC1B8ue170006ESF_, symObjAddr: 0x10444, symBinAddr: 0x100010A98, symSize: 0x34 }
  - { offsetInCU: 0x2678A, offset: 0x2678A, size: 0x8, addend: 0x0, symName: __ZNSt3__114__map_iteratorINS_15__tree_iteratorINS_12__value_typeINS_12basic_stringIcNS_11char_traitsIcEENS_9allocatorIcEEEE14LocationConfigEEPNS_11__tree_nodeISA_PvEElEEEC2B8ue170006ESF_, symObjAddr: 0x10478, symBinAddr: 0x100010ACC, symSize: 0x20 }
  - { offsetInCU: 0x267C3, offset: 0x267C3, size: 0x8, addend: 0x0, symName: __ZNSt3__14pairINS_12basic_stringIcNS_11char_traitsIcEENS_9allocatorIcEEEE14LocationConfigEC1B8ue170006ERKS6_RKS7_, symObjAddr: 0x10498, symBinAddr: 0x100010AEC, symSize: 0x3C }
  - { offsetInCU: 0x26809, offset: 0x26809, size: 0x8, addend: 0x0, symName: __ZNSt3__14pairINS_12basic_stringIcNS_11char_traitsIcEENS_9allocatorIcEEEE14LocationConfigEC2B8ue170006ERKS6_RKS7_, symObjAddr: 0x104D4, symBinAddr: 0x100010B28, symSize: 0x78 }
  - { offsetInCU: 0x2684F, offset: 0x2684F, size: 0x8, addend: 0x0, symName: __ZNSt3__14pairIKNS_12basic_stringIcNS_11char_traitsIcEENS_9allocatorIcEEEE14LocationConfigEC2B8ue170006IS6_S8_EERKNS0_IT_T0_EE, symObjAddr: 0x1054C, symBinAddr: 0x100010BA0, symSize: 0x78 }
  - { offsetInCU: 0x26899, offset: 0x26899, size: 0x8, addend: 0x0, symName: __ZNSt3__14pairIKNS_12basic_stringIcNS_11char_traitsIcEENS_9allocatorIcEEEE14LocationConfigED2Ev, symObjAddr: 0x105C4, symBinAddr: 0x100010C18, symSize: 0x68 }
  - { offsetInCU: 0x268C5, offset: 0x268C5, size: 0x8, addend: 0x0, symName: __ZNSt3__14pairINS_12basic_stringIcNS_11char_traitsIcEENS_9allocatorIcEEEE14LocationConfigED2Ev, symObjAddr: 0x1062C, symBinAddr: 0x100010C80, symSize: 0x68 }
  - { offsetInCU: 0x268F1, offset: 0x268F1, size: 0x8, addend: 0x0, symName: __ZN14LocationConfigD2Ev, symObjAddr: 0x10694, symBinAddr: 0x100010CE8, symSize: 0x33C }
  - { offsetInCU: 0x2691D, offset: 0x2691D, size: 0x8, addend: 0x0, symName: __ZNSt3__16vectorI12ServerConfigNS_9allocatorIS1_EEE9push_backB8ue170006ERKS1_, symObjAddr: 0x109D0, symBinAddr: 0x100011024, symSize: 0x6C }
  - { offsetInCU: 0x26954, offset: 0x26954, size: 0x8, addend: 0x0, symName: __ZNSt3__16vectorI12ServerConfigNS_9allocatorIS1_EEE9__end_capB8ue170006Ev, symObjAddr: 0x10A3C, symBinAddr: 0x100011090, symSize: 0x28 }
  - { offsetInCU: 0x2697A, offset: 0x2697A, size: 0x8, addend: 0x0, symName: __ZNSt3__16vectorI12ServerConfigNS_9allocatorIS1_EEE22__construct_one_at_endB8ue170006IJRKS1_EEEvDpOT_, symObjAddr: 0x10A64, symBinAddr: 0x1000110B8, symSize: 0x98 }
  - { offsetInCU: 0x269C9, offset: 0x269C9, size: 0x8, addend: 0x0, symName: __ZNSt3__16vectorI12ServerConfigNS_9allocatorIS1_EEE21__push_back_slow_pathIRKS1_EEvOT_, symObjAddr: 0x10AFC, symBinAddr: 0x100011150, symSize: 0xE0 }
  - { offsetInCU: 0x26A27, offset: 0x26A27, size: 0x8, addend: 0x0, symName: __ZNSt3__117__compressed_pairIP12ServerConfigNS_9allocatorIS1_EEE5firstB8ue170006Ev, symObjAddr: 0x10BDC, symBinAddr: 0x100011230, symSize: 0x24 }
  - { offsetInCU: 0x26A4D, offset: 0x26A4D, size: 0x8, addend: 0x0, symName: __ZNSt3__122__compressed_pair_elemIP12ServerConfigLi0ELb0EE5__getB8ue170006Ev, symObjAddr: 0x10C00, symBinAddr: 0x100011254, symSize: 0x14 }
  - { offsetInCU: 0x26A8C, offset: 0x26A8C, size: 0x8, addend: 0x0, symName: __ZNSt3__16vectorI12ServerConfigNS_9allocatorIS1_EEE21_ConstructTransactionC1B8ue170006ERS4_m, symObjAddr: 0x10C14, symBinAddr: 0x100011268, symSize: 0x3C }
  - { offsetInCU: 0x26AD4, offset: 0x26AD4, size: 0x8, addend: 0x0, symName: __ZNSt3__116allocator_traitsINS_9allocatorI12ServerConfigEEE9constructB8ue170006IS2_JRKS2_EvEEvRS3_PT_DpOT0_, symObjAddr: 0x10C50, symBinAddr: 0x1000112A4, symSize: 0x34 }
  - { offsetInCU: 0x26B2B, offset: 0x26B2B, size: 0x8, addend: 0x0, symName: __ZNSt3__16vectorI12ServerConfigNS_9allocatorIS1_EEE7__allocB8ue170006Ev, symObjAddr: 0x10C84, symBinAddr: 0x1000112D8, symSize: 0x28 }
  - { offsetInCU: 0x26B51, offset: 0x26B51, size: 0x8, addend: 0x0, symName: __ZNSt3__16vectorI12ServerConfigNS_9allocatorIS1_EEE21_ConstructTransactionD1B8ue170006Ev, symObjAddr: 0x10CC0, symBinAddr: 0x100011314, symSize: 0x2C }
  - { offsetInCU: 0x26B7B, offset: 0x26B7B, size: 0x8, addend: 0x0, symName: __ZNSt3__16vectorI12ServerConfigNS_9allocatorIS1_EEE21_ConstructTransactionC2B8ue170006ERS4_m, symObjAddr: 0x10CEC, symBinAddr: 0x100011340, symSize: 0x4C }
  - { offsetInCU: 0x26BC3, offset: 0x26BC3, size: 0x8, addend: 0x0, symName: __ZNSt3__19allocatorI12ServerConfigE9constructB8ue170006IS1_JRKS1_EEEvPT_DpOT0_, symObjAddr: 0x10D38, symBinAddr: 0x10001138C, symSize: 0x30 }
  - { offsetInCU: 0x26C19, offset: 0x26C19, size: 0x8, addend: 0x0, symName: __ZN12ServerConfigC1ERKS_, symObjAddr: 0x10D68, symBinAddr: 0x1000113BC, symSize: 0x34 }
  - { offsetInCU: 0x26C4E, offset: 0x26C4E, size: 0x8, addend: 0x0, symName: __ZN12ServerConfigC2ERKS_, symObjAddr: 0x10D9C, symBinAddr: 0x1000113F0, symSize: 0x108 }
  - { offsetInCU: 0x26C83, offset: 0x26C83, size: 0x8, addend: 0x0, symName: __ZNSt3__113unordered_mapIiNS_12basic_stringIcNS_11char_traitsIcEENS_9allocatorIcEEEENS_4hashIiEENS_8equal_toIiEENS4_INS_4pairIKiS6_EEEEEC1ERKSF_, symObjAddr: 0x10EA4, symBinAddr: 0x1000114F8, symSize: 0x34 }
  - { offsetInCU: 0x26CBE, offset: 0x26CBE, size: 0x8, addend: 0x0, symName: __ZNSt3__13mapINS_12basic_stringIcNS_11char_traitsIcEENS_9allocatorIcEEEE14LocationConfigNS_4lessIS6_EENS4_INS_4pairIKS6_S7_EEEEEC1B8ue170006ERKSE_, symObjAddr: 0x10ED8, symBinAddr: 0x10001152C, symSize: 0x34 }
  - { offsetInCU: 0x26CF7, offset: 0x26CF7, size: 0x8, addend: 0x0, symName: __ZNSt3__113unordered_mapIiNS_12basic_stringIcNS_11char_traitsIcEENS_9allocatorIcEEEENS_4hashIiEENS_8equal_toIiEENS4_INS_4pairIKiS6_EEEEEC2ERKSF_, symObjAddr: 0x10F0C, symBinAddr: 0x100011560, symSize: 0xA8 }
  - { offsetInCU: 0x26D32, offset: 0x26D32, size: 0x8, addend: 0x0, symName: __ZNSt3__112__hash_tableINS_17__hash_value_typeIiNS_12basic_stringIcNS_11char_traitsIcEENS_9allocatorIcEEEEEENS_22__unordered_map_hasherIiS8_NS_4hashIiEENS_8equal_toIiEELb1EEENS_21__unordered_map_equalIiS8_SD_SB_Lb1EEENS5_IS8_EEEC1ERKSI_, symObjAddr: 0x10FB4, symBinAddr: 0x100011608, symSize: 0x34 }
  - { offsetInCU: 0x26D6D, offset: 0x26D6D, size: 0x8, addend: 0x0, symName: __ZNKSt3__113unordered_mapIiNS_12basic_stringIcNS_11char_traitsIcEENS_9allocatorIcEEEENS_4hashIiEENS_8equal_toIiEENS4_INS_4pairIKiS6_EEEEE12bucket_countB8ue170006Ev, symObjAddr: 0x10FE8, symBinAddr: 0x10001163C, symSize: 0x24 }
  - { offsetInCU: 0x26D93, offset: 0x26D93, size: 0x8, addend: 0x0, symName: __ZNSt3__113unordered_mapIiNS_12basic_stringIcNS_11char_traitsIcEENS_9allocatorIcEEEENS_4hashIiEENS_8equal_toIiEENS4_INS_4pairIKiS6_EEEEE6insertINS_25__hash_map_const_iteratorINS_21__hash_const_iteratorIPNS_11__hash_nodeINS_17__hash_value_typeIiS6_EEPvEEEEEEEEvT_SR_, symObjAddr: 0x1100C, symBinAddr: 0x100011660, symSize: 0x70 }
  - { offsetInCU: 0x26DE2, offset: 0x26DE2, size: 0x8, addend: 0x0, symName: __ZNKSt3__113unordered_mapIiNS_12basic_stringIcNS_11char_traitsIcEENS_9allocatorIcEEEENS_4hashIiEENS_8equal_toIiEENS4_INS_4pairIKiS6_EEEEE5beginB8ue170006Ev, symObjAddr: 0x1107C, symBinAddr: 0x1000116D0, symSize: 0x38 }
  - { offsetInCU: 0x26E08, offset: 0x26E08, size: 0x8, addend: 0x0, symName: __ZNKSt3__113unordered_mapIiNS_12basic_stringIcNS_11char_traitsIcEENS_9allocatorIcEEEENS_4hashIiEENS_8equal_toIiEENS4_INS_4pairIKiS6_EEEEE3endB8ue170006Ev, symObjAddr: 0x110B4, symBinAddr: 0x100011708, symSize: 0x38 }
  - { offsetInCU: 0x26E2E, offset: 0x26E2E, size: 0x8, addend: 0x0, symName: __ZNSt3__112__hash_tableINS_17__hash_value_typeIiNS_12basic_stringIcNS_11char_traitsIcEENS_9allocatorIcEEEEEENS_22__unordered_map_hasherIiS8_NS_4hashIiEENS_8equal_toIiEELb1EEENS_21__unordered_map_equalIiS8_SD_SB_Lb1EEENS5_IS8_EEEC2ERKSI_, symObjAddr: 0x110EC, symBinAddr: 0x100011740, symSize: 0xF4 }
  - { offsetInCU: 0x26E69, offset: 0x26E69, size: 0x8, addend: 0x0, symName: __ZNSt3__116allocator_traitsINS_9allocatorIPNS_16__hash_node_baseIPNS_11__hash_nodeINS_17__hash_value_typeIiNS_12basic_stringIcNS_11char_traitsIcEENS1_IcEEEEEEPvEEEEEEE37select_on_container_copy_constructionB8ue170006ISG_vvEESG_RKSG_, symObjAddr: 0x111E0, symBinAddr: 0x100011834, symSize: 0x10 }
  - { offsetInCU: 0x26E98, offset: 0x26E98, size: 0x8, addend: 0x0, symName: __ZNKSt3__125__bucket_list_deallocatorINS_9allocatorIPNS_16__hash_node_baseIPNS_11__hash_nodeINS_17__hash_value_typeIiNS_12basic_stringIcNS_11char_traitsIcEENS1_IcEEEEEEPvEEEEEEE7__allocB8ue170006Ev, symObjAddr: 0x111F0, symBinAddr: 0x100011844, symSize: 0x24 }
  - { offsetInCU: 0x26EBE, offset: 0x26EBE, size: 0x8, addend: 0x0, symName: __ZNSt3__125__bucket_list_deallocatorINS_9allocatorIPNS_16__hash_node_baseIPNS_11__hash_nodeINS_17__hash_value_typeIiNS_12basic_stringIcNS_11char_traitsIcEENS1_IcEEEEEEPvEEEEEEEC1B8ue170006ERKSG_m, symObjAddr: 0x11214, symBinAddr: 0x100011868, symSize: 0x3C }
  - { offsetInCU: 0x26F06, offset: 0x26F06, size: 0x8, addend: 0x0, symName: __ZNSt3__110unique_ptrIA_PNS_16__hash_node_baseIPNS_11__hash_nodeINS_17__hash_value_typeIiNS_12basic_stringIcNS_11char_traitsIcEENS_9allocatorIcEEEEEEPvEEEENS_25__bucket_list_deallocatorINS7_ISF_EEEEEC1B8ue170006ILb1EvEEDnNS_16__dependent_typeINS_27__unique_ptr_deleter_sfinaeISJ_EEXT_EE20__good_rval_ref_typeE, symObjAddr: 0x11250, symBinAddr: 0x1000118A4, symSize: 0x3C }
  - { offsetInCU: 0x26F56, offset: 0x26F56, size: 0x8, addend: 0x0, symName: __ZNSt3__116allocator_traitsINS_9allocatorINS_11__hash_nodeINS_17__hash_value_typeIiNS_12basic_stringIcNS_11char_traitsIcEENS1_IcEEEEEEPvEEEEE37select_on_container_copy_constructionB8ue170006ISC_vvEESC_RKSC_, symObjAddr: 0x1128C, symBinAddr: 0x1000118E0, symSize: 0x10 }
  - { offsetInCU: 0x26F85, offset: 0x26F85, size: 0x8, addend: 0x0, symName: __ZNKSt3__112__hash_tableINS_17__hash_value_typeIiNS_12basic_stringIcNS_11char_traitsIcEENS_9allocatorIcEEEEEENS_22__unordered_map_hasherIiS8_NS_4hashIiEENS_8equal_toIiEELb1EEENS_21__unordered_map_equalIiS8_SD_SB_Lb1EEENS5_IS8_EEE12__node_allocB8ue170006Ev, symObjAddr: 0x1129C, symBinAddr: 0x1000118F0, symSize: 0x28 }
  - { offsetInCU: 0x26FB1, offset: 0x26FB1, size: 0x8, addend: 0x0, symName: __ZNSt3__117__compressed_pairINS_16__hash_node_baseIPNS_11__hash_nodeINS_17__hash_value_typeIiNS_12basic_stringIcNS_11char_traitsIcEENS_9allocatorIcEEEEEEPvEEEENS7_ISC_EEEC1B8ue170006INS_18__default_init_tagESF_EEOT_OT0_, symObjAddr: 0x112C4, symBinAddr: 0x100011918, symSize: 0x3C }
  - { offsetInCU: 0x27009, offset: 0x27009, size: 0x8, addend: 0x0, symName: __ZNKSt3__112__hash_tableINS_17__hash_value_typeIiNS_12basic_stringIcNS_11char_traitsIcEENS_9allocatorIcEEEEEENS_22__unordered_map_hasherIiS8_NS_4hashIiEENS_8equal_toIiEELb1EEENS_21__unordered_map_equalIiS8_SD_SB_Lb1EEENS5_IS8_EEE13hash_functionB8ue170006Ev, symObjAddr: 0x11300, symBinAddr: 0x100011954, symSize: 0x28 }
  - { offsetInCU: 0x2702F, offset: 0x2702F, size: 0x8, addend: 0x0, symName: __ZNSt3__117__compressed_pairImNS_22__unordered_map_hasherIiNS_17__hash_value_typeIiNS_12basic_stringIcNS_11char_traitsIcEENS_9allocatorIcEEEEEENS_4hashIiEENS_8equal_toIiEELb1EEEEC1B8ue170006IiRKSE_EEOT_OT0_, symObjAddr: 0x11328, symBinAddr: 0x10001197C, symSize: 0x3C }
  - { offsetInCU: 0x27087, offset: 0x27087, size: 0x8, addend: 0x0, symName: __ZNKSt3__117__compressed_pairImNS_9allocatorIPNS_16__hash_node_baseIPNS_11__hash_nodeINS_17__hash_value_typeIiNS_12basic_stringIcNS_11char_traitsIcEENS1_IcEEEEEEPvEEEEEEE6secondB8ue170006Ev, symObjAddr: 0x11364, symBinAddr: 0x1000119B8, symSize: 0x24 }
  - { offsetInCU: 0x270AD, offset: 0x270AD, size: 0x8, addend: 0x0, symName: __ZNKSt3__122__compressed_pair_elemINS_9allocatorIPNS_16__hash_node_baseIPNS_11__hash_nodeINS_17__hash_value_typeIiNS_12basic_stringIcNS_11char_traitsIcEENS1_IcEEEEEEPvEEEEEELi1ELb1EE5__getB8ue170006Ev, symObjAddr: 0x11388, symBinAddr: 0x1000119DC, symSize: 0x14 }
  - { offsetInCU: 0x270D3, offset: 0x270D3, size: 0x8, addend: 0x0, symName: __ZNSt3__125__bucket_list_deallocatorINS_9allocatorIPNS_16__hash_node_baseIPNS_11__hash_nodeINS_17__hash_value_typeIiNS_12basic_stringIcNS_11char_traitsIcEENS1_IcEEEEEEPvEEEEEEEC2B8ue170006ERKSG_m, symObjAddr: 0x1139C, symBinAddr: 0x1000119F0, symSize: 0x3C }
  - { offsetInCU: 0x2711B, offset: 0x2711B, size: 0x8, addend: 0x0, symName: __ZNSt3__117__compressed_pairImNS_9allocatorIPNS_16__hash_node_baseIPNS_11__hash_nodeINS_17__hash_value_typeIiNS_12basic_stringIcNS_11char_traitsIcEENS1_IcEEEEEEPvEEEEEEEC1B8ue170006IRmRKSG_EEOT_OT0_, symObjAddr: 0x113D8, symBinAddr: 0x100011A2C, symSize: 0x3C }
  - { offsetInCU: 0x27173, offset: 0x27173, size: 0x8, addend: 0x0, symName: __ZNSt3__117__compressed_pairImNS_9allocatorIPNS_16__hash_node_baseIPNS_11__hash_nodeINS_17__hash_value_typeIiNS_12basic_stringIcNS_11char_traitsIcEENS1_IcEEEEEEPvEEEEEEEC2B8ue170006IRmRKSG_EEOT_OT0_, symObjAddr: 0x11414, symBinAddr: 0x100011A68, symSize: 0x44 }
  - { offsetInCU: 0x271CB, offset: 0x271CB, size: 0x8, addend: 0x0, symName: __ZNSt3__122__compressed_pair_elemINS_9allocatorIPNS_16__hash_node_baseIPNS_11__hash_nodeINS_17__hash_value_typeIiNS_12basic_stringIcNS_11char_traitsIcEENS1_IcEEEEEEPvEEEEEELi1ELb1EEC2B8ue170006IRKSG_vEEOT_, symObjAddr: 0x11458, symBinAddr: 0x100011AAC, symSize: 0x18 }
  - { offsetInCU: 0x2720D, offset: 0x2720D, size: 0x8, addend: 0x0, symName: __ZNSt3__110unique_ptrIA_PNS_16__hash_node_baseIPNS_11__hash_nodeINS_17__hash_value_typeIiNS_12basic_stringIcNS_11char_traitsIcEENS_9allocatorIcEEEEEEPvEEEENS_25__bucket_list_deallocatorINS7_ISF_EEEEEC2B8ue170006ILb1EvEEDnNS_16__dependent_typeINS_27__unique_ptr_deleter_sfinaeISJ_EEXT_EE20__good_rval_ref_typeE, symObjAddr: 0x11470, symBinAddr: 0x100011AC4, symSize: 0x5C }
  - { offsetInCU: 0x2725D, offset: 0x2725D, size: 0x8, addend: 0x0, symName: __ZNSt3__117__compressed_pairIPPNS_16__hash_node_baseIPNS_11__hash_nodeINS_17__hash_value_typeIiNS_12basic_stringIcNS_11char_traitsIcEENS_9allocatorIcEEEEEEPvEEEENS_25__bucket_list_deallocatorINS7_ISF_EEEEEC1B8ue170006IDnSJ_EEOT_OT0_, symObjAddr: 0x114CC, symBinAddr: 0x100011B20, symSize: 0x3C }
  - { offsetInCU: 0x272B5, offset: 0x272B5, size: 0x8, addend: 0x0, symName: __ZNSt3__117__compressed_pairIPPNS_16__hash_node_baseIPNS_11__hash_nodeINS_17__hash_value_typeIiNS_12basic_stringIcNS_11char_traitsIcEENS_9allocatorIcEEEEEEPvEEEENS_25__bucket_list_deallocatorINS7_ISF_EEEEEC2B8ue170006IDnSJ_EEOT_OT0_, symObjAddr: 0x11508, symBinAddr: 0x100011B5C, symSize: 0x48 }
  - { offsetInCU: 0x2730D, offset: 0x2730D, size: 0x8, addend: 0x0, symName: __ZNSt3__122__compressed_pair_elemIPPNS_16__hash_node_baseIPNS_11__hash_nodeINS_17__hash_value_typeIiNS_12basic_stringIcNS_11char_traitsIcEENS_9allocatorIcEEEEEEPvEEEELi0ELb0EEC2B8ue170006IDnvEEOT_, symObjAddr: 0x11550, symBinAddr: 0x100011BA4, symSize: 0x1C }
  - { offsetInCU: 0x2734F, offset: 0x2734F, size: 0x8, addend: 0x0, symName: __ZNSt3__122__compressed_pair_elemINS_25__bucket_list_deallocatorINS_9allocatorIPNS_16__hash_node_baseIPNS_11__hash_nodeINS_17__hash_value_typeIiNS_12basic_stringIcNS_11char_traitsIcEENS2_IcEEEEEEPvEEEEEEEELi1ELb0EEC2B8ue170006ISI_vEEOT_, symObjAddr: 0x1156C, symBinAddr: 0x100011BC0, symSize: 0x34 }
  - { offsetInCU: 0x27391, offset: 0x27391, size: 0x8, addend: 0x0, symName: __ZNSt3__125__bucket_list_deallocatorINS_9allocatorIPNS_16__hash_node_baseIPNS_11__hash_nodeINS_17__hash_value_typeIiNS_12basic_stringIcNS_11char_traitsIcEENS1_IcEEEEEEPvEEEEEEEC1B8ue170006EOSH_, symObjAddr: 0x115A0, symBinAddr: 0x100011BF4, symSize: 0x34 }
  - { offsetInCU: 0x273CA, offset: 0x273CA, size: 0x8, addend: 0x0, symName: __ZNSt3__125__bucket_list_deallocatorINS_9allocatorIPNS_16__hash_node_baseIPNS_11__hash_nodeINS_17__hash_value_typeIiNS_12basic_stringIcNS_11char_traitsIcEENS1_IcEEEEEEPvEEEEEEEC2B8ue170006EOSH_, symObjAddr: 0x115D4, symBinAddr: 0x100011C28, symSize: 0x48 }
  - { offsetInCU: 0x27403, offset: 0x27403, size: 0x8, addend: 0x0, symName: __ZNKSt3__117__compressed_pairINS_16__hash_node_baseIPNS_11__hash_nodeINS_17__hash_value_typeIiNS_12basic_stringIcNS_11char_traitsIcEENS_9allocatorIcEEEEEEPvEEEENS7_ISC_EEE6secondB8ue170006Ev, symObjAddr: 0x1161C, symBinAddr: 0x100011C70, symSize: 0x24 }
  - { offsetInCU: 0x27429, offset: 0x27429, size: 0x8, addend: 0x0, symName: __ZNKSt3__122__compressed_pair_elemINS_9allocatorINS_11__hash_nodeINS_17__hash_value_typeIiNS_12basic_stringIcNS_11char_traitsIcEENS1_IcEEEEEEPvEEEELi1ELb1EE5__getB8ue170006Ev, symObjAddr: 0x11640, symBinAddr: 0x100011C94, symSize: 0x14 }
  - { offsetInCU: 0x2744F, offset: 0x2744F, size: 0x8, addend: 0x0, symName: __ZNSt3__117__compressed_pairINS_16__hash_node_baseIPNS_11__hash_nodeINS_17__hash_value_typeIiNS_12basic_stringIcNS_11char_traitsIcEENS_9allocatorIcEEEEEEPvEEEENS7_ISC_EEEC2B8ue170006INS_18__default_init_tagESF_EEOT_OT0_, symObjAddr: 0x11654, symBinAddr: 0x100011CA8, symSize: 0x40 }
  - { offsetInCU: 0x274A7, offset: 0x274A7, size: 0x8, addend: 0x0, symName: __ZNSt3__122__compressed_pair_elemINS_16__hash_node_baseIPNS_11__hash_nodeINS_17__hash_value_typeIiNS_12basic_stringIcNS_11char_traitsIcEENS_9allocatorIcEEEEEEPvEEEELi0ELb0EEC2B8ue170006ENS_18__default_init_tagE, symObjAddr: 0x11694, symBinAddr: 0x100011CE8, symSize: 0x2C }
  - { offsetInCU: 0x274DB, offset: 0x274DB, size: 0x8, addend: 0x0, symName: __ZNSt3__122__compressed_pair_elemINS_9allocatorINS_11__hash_nodeINS_17__hash_value_typeIiNS_12basic_stringIcNS_11char_traitsIcEENS1_IcEEEEEEPvEEEELi1ELb1EEC2B8ue170006ISC_vEEOT_, symObjAddr: 0x116C0, symBinAddr: 0x100011D14, symSize: 0x18 }
  - { offsetInCU: 0x2751D, offset: 0x2751D, size: 0x8, addend: 0x0, symName: __ZNKSt3__117__compressed_pairImNS_22__unordered_map_hasherIiNS_17__hash_value_typeIiNS_12basic_stringIcNS_11char_traitsIcEENS_9allocatorIcEEEEEENS_4hashIiEENS_8equal_toIiEELb1EEEE6secondB8ue170006Ev, symObjAddr: 0x116D8, symBinAddr: 0x100011D2C, symSize: 0x24 }
  - { offsetInCU: 0x27543, offset: 0x27543, size: 0x8, addend: 0x0, symName: __ZNKSt3__122__compressed_pair_elemINS_22__unordered_map_hasherIiNS_17__hash_value_typeIiNS_12basic_stringIcNS_11char_traitsIcEENS_9allocatorIcEEEEEENS_4hashIiEENS_8equal_toIiEELb1EEELi1ELb1EE5__getB8ue170006Ev, symObjAddr: 0x116FC, symBinAddr: 0x100011D50, symSize: 0x14 }
  - { offsetInCU: 0x27569, offset: 0x27569, size: 0x8, addend: 0x0, symName: __ZNSt3__117__compressed_pairImNS_22__unordered_map_hasherIiNS_17__hash_value_typeIiNS_12basic_stringIcNS_11char_traitsIcEENS_9allocatorIcEEEEEENS_4hashIiEENS_8equal_toIiEELb1EEEEC2B8ue170006IiRKSE_EEOT_OT0_, symObjAddr: 0x11710, symBinAddr: 0x100011D64, symSize: 0x44 }
  - { offsetInCU: 0x275C1, offset: 0x275C1, size: 0x8, addend: 0x0, symName: __ZNSt3__122__compressed_pair_elemINS_22__unordered_map_hasherIiNS_17__hash_value_typeIiNS_12basic_stringIcNS_11char_traitsIcEENS_9allocatorIcEEEEEENS_4hashIiEENS_8equal_toIiEELb1EEELi1ELb1EEC2B8ue170006IRKSE_vEEOT_, symObjAddr: 0x11754, symBinAddr: 0x100011DA8, symSize: 0x18 }
  - { offsetInCU: 0x27603, offset: 0x27603, size: 0x8, addend: 0x0, symName: __ZNSt3__112__hash_tableINS_17__hash_value_typeIiNS_12basic_stringIcNS_11char_traitsIcEENS_9allocatorIcEEEEEENS_22__unordered_map_hasherIiS8_NS_4hashIiEENS_8equal_toIiEELb1EEENS_21__unordered_map_equalIiS8_SD_SB_Lb1EEENS5_IS8_EEE15__insert_uniqueB8ue170006ERKNS_4pairIKiS7_EE, symObjAddr: 0x1179C, symBinAddr: 0x100011DF0, symSize: 0x50 }
  - { offsetInCU: 0x27638, offset: 0x27638, size: 0x8, addend: 0x0, symName: __ZNKSt3__125__hash_map_const_iteratorINS_21__hash_const_iteratorIPNS_11__hash_nodeINS_17__hash_value_typeIiNS_12basic_stringIcNS_11char_traitsIcEENS_9allocatorIcEEEEEEPvEEEEEdeB8ue170006Ev, symObjAddr: 0x117EC, symBinAddr: 0x100011E40, symSize: 0x28 }
  - { offsetInCU: 0x2765E, offset: 0x2765E, size: 0x8, addend: 0x0, symName: __ZNSt3__125__hash_map_const_iteratorINS_21__hash_const_iteratorIPNS_11__hash_nodeINS_17__hash_value_typeIiNS_12basic_stringIcNS_11char_traitsIcEENS_9allocatorIcEEEEEEPvEEEEEppB8ue170006Ev, symObjAddr: 0x11814, symBinAddr: 0x100011E68, symSize: 0x2C }
  - { offsetInCU: 0x27684, offset: 0x27684, size: 0x8, addend: 0x0, symName: __ZNSt3__112__hash_tableINS_17__hash_value_typeIiNS_12basic_stringIcNS_11char_traitsIcEENS_9allocatorIcEEEEEENS_22__unordered_map_hasherIiS8_NS_4hashIiEENS_8equal_toIiEELb1EEENS_21__unordered_map_equalIiS8_SD_SB_Lb1EEENS5_IS8_EEE25__emplace_unique_key_argsIiJRKNS_4pairIKiS7_EEEEENSK_INS_15__hash_iteratorIPNS_11__hash_nodeIS8_PvEEEEbEERKT_DpOT0_, symObjAddr: 0x118A4, symBinAddr: 0x100011EF8, symSize: 0x4A8 }
  - { offsetInCU: 0x27764, offset: 0x27764, size: 0x8, addend: 0x0, symName: __ZNSt3__122__hash_key_value_typesINS_17__hash_value_typeIiNS_12basic_stringIcNS_11char_traitsIcEENS_9allocatorIcEEEEEEE9__get_keyB8ue170006ERKNS_4pairIKiS7_EE, symObjAddr: 0x11D4C, symBinAddr: 0x1000123A0, symSize: 0x14 }
  - { offsetInCU: 0x27787, offset: 0x27787, size: 0x8, addend: 0x0, symName: __ZNSt3__112__hash_tableINS_17__hash_value_typeIiNS_12basic_stringIcNS_11char_traitsIcEENS_9allocatorIcEEEEEENS_22__unordered_map_hasherIiS8_NS_4hashIiEENS_8equal_toIiEELb1EEENS_21__unordered_map_equalIiS8_SD_SB_Lb1EEENS5_IS8_EEE21__construct_node_hashIRKNS_4pairIKiS7_EEJEEENS_10unique_ptrINS_11__hash_nodeIS8_PvEENS_22__hash_node_destructorINS5_ISS_EEEEEEmOT_DpOT0_, symObjAddr: 0x11D60, symBinAddr: 0x1000123B4, symSize: 0x148 }
  - { offsetInCU: 0x277FA, offset: 0x277FA, size: 0x8, addend: 0x0, symName: __ZNKSt3__110unique_ptrINS_11__hash_nodeINS_17__hash_value_typeIiNS_12basic_stringIcNS_11char_traitsIcEENS_9allocatorIcEEEEEEPvEENS_22__hash_node_destructorINS6_ISB_EEEEEptB8ue170006Ev, symObjAddr: 0x11EA8, symBinAddr: 0x1000124FC, symSize: 0x28 }
  - { offsetInCU: 0x27820, offset: 0x27820, size: 0x8, addend: 0x0, symName: __ZNKSt3__110unique_ptrINS_11__hash_nodeINS_17__hash_value_typeIiNS_12basic_stringIcNS_11char_traitsIcEENS_9allocatorIcEEEEEEPvEENS_22__hash_node_destructorINS6_ISB_EEEEE3getB8ue170006Ev, symObjAddr: 0x11ED0, symBinAddr: 0x100012524, symSize: 0x28 }
  - { offsetInCU: 0x27846, offset: 0x27846, size: 0x8, addend: 0x0, symName: __ZNSt3__110unique_ptrINS_11__hash_nodeINS_17__hash_value_typeIiNS_12basic_stringIcNS_11char_traitsIcEENS_9allocatorIcEEEEEEPvEENS_22__hash_node_destructorINS6_ISB_EEEEE7releaseB8ue170006Ev, symObjAddr: 0x11EF8, symBinAddr: 0x10001254C, symSize: 0x44 }
  - { offsetInCU: 0x2787B, offset: 0x2787B, size: 0x8, addend: 0x0, symName: __ZNSt3__110unique_ptrINS_11__hash_nodeINS_17__hash_value_typeIiNS_12basic_stringIcNS_11char_traitsIcEENS_9allocatorIcEEEEEEPvEENS_22__hash_node_destructorINS6_ISB_EEEEED1B8ue170006Ev, symObjAddr: 0x11F3C, symBinAddr: 0x100012590, symSize: 0x2C }
  - { offsetInCU: 0x278A5, offset: 0x278A5, size: 0x8, addend: 0x0, symName: __ZNSt3__122__hash_node_destructorINS_9allocatorINS_11__hash_nodeINS_17__hash_value_typeIiNS_12basic_stringIcNS_11char_traitsIcEENS1_IcEEEEEEPvEEEEEC1B8ue170006ERSC_b, symObjAddr: 0x11F68, symBinAddr: 0x1000125BC, symSize: 0x48 }
  - { offsetInCU: 0x278F3, offset: 0x278F3, size: 0x8, addend: 0x0, symName: __ZNSt3__110unique_ptrINS_11__hash_nodeINS_17__hash_value_typeIiNS_12basic_stringIcNS_11char_traitsIcEENS_9allocatorIcEEEEEEPvEENS_22__hash_node_destructorINS6_ISB_EEEEEC1B8ue170006ILb1EvEEPSB_NS_16__dependent_typeINS_27__unique_ptr_deleter_sfinaeISE_EEXT_EE20__good_rval_ref_typeE, symObjAddr: 0x11FB0, symBinAddr: 0x100012604, symSize: 0x3C }
  - { offsetInCU: 0x27944, offset: 0x27944, size: 0x8, addend: 0x0, symName: __ZNSt3__116allocator_traitsINS_9allocatorINS_11__hash_nodeINS_17__hash_value_typeIiNS_12basic_stringIcNS_11char_traitsIcEENS1_IcEEEEEEPvEEEEE9constructB8ue170006INS_4pairIKiS8_EEJRKSH_EvEEvRSC_PT_DpOT0_, symObjAddr: 0x11FEC, symBinAddr: 0x100012640, symSize: 0x34 }
  - { offsetInCU: 0x2799B, offset: 0x2799B, size: 0x8, addend: 0x0, symName: __ZNSt3__110unique_ptrINS_11__hash_nodeINS_17__hash_value_typeIiNS_12basic_stringIcNS_11char_traitsIcEENS_9allocatorIcEEEEEEPvEENS_22__hash_node_destructorINS6_ISB_EEEEE11get_deleterB8ue170006Ev, symObjAddr: 0x12020, symBinAddr: 0x100012674, symSize: 0x24 }
  - { offsetInCU: 0x279C1, offset: 0x279C1, size: 0x8, addend: 0x0, symName: __ZNSt3__122__hash_node_destructorINS_9allocatorINS_11__hash_nodeINS_17__hash_value_typeIiNS_12basic_stringIcNS_11char_traitsIcEENS1_IcEEEEEEPvEEEEEC2B8ue170006ERSC_b, symObjAddr: 0x12044, symBinAddr: 0x100012698, symSize: 0x38 }
  - { offsetInCU: 0x27A09, offset: 0x27A09, size: 0x8, addend: 0x0, symName: __ZNSt3__110unique_ptrINS_11__hash_nodeINS_17__hash_value_typeIiNS_12basic_stringIcNS_11char_traitsIcEENS_9allocatorIcEEEEEEPvEENS_22__hash_node_destructorINS6_ISB_EEEEEC2B8ue170006ILb1EvEEPSB_NS_16__dependent_typeINS_27__unique_ptr_deleter_sfinaeISE_EEXT_EE20__good_rval_ref_typeE, symObjAddr: 0x1207C, symBinAddr: 0x1000126D0, symSize: 0x5C }
  - { offsetInCU: 0x27A5A, offset: 0x27A5A, size: 0x8, addend: 0x0, symName: __ZNSt3__117__compressed_pairIPNS_11__hash_nodeINS_17__hash_value_typeIiNS_12basic_stringIcNS_11char_traitsIcEENS_9allocatorIcEEEEEEPvEENS_22__hash_node_destructorINS6_ISB_EEEEEC1B8ue170006IRSC_SF_EEOT_OT0_, symObjAddr: 0x120D8, symBinAddr: 0x10001272C, symSize: 0x3C }
  - { offsetInCU: 0x27AB2, offset: 0x27AB2, size: 0x8, addend: 0x0, symName: __ZNSt3__117__compressed_pairIPNS_11__hash_nodeINS_17__hash_value_typeIiNS_12basic_stringIcNS_11char_traitsIcEENS_9allocatorIcEEEEEEPvEENS_22__hash_node_destructorINS6_ISB_EEEEEC2B8ue170006IRSC_SF_EEOT_OT0_, symObjAddr: 0x12114, symBinAddr: 0x100012768, symSize: 0x48 }
  - { offsetInCU: 0x27B0A, offset: 0x27B0A, size: 0x8, addend: 0x0, symName: __ZNSt3__122__compressed_pair_elemINS_22__hash_node_destructorINS_9allocatorINS_11__hash_nodeINS_17__hash_value_typeIiNS_12basic_stringIcNS_11char_traitsIcEENS2_IcEEEEEEPvEEEEEELi1ELb0EEC2B8ue170006ISE_vEEOT_, symObjAddr: 0x1215C, symBinAddr: 0x1000127B0, symSize: 0x24 }
  - { offsetInCU: 0x27B4C, offset: 0x27B4C, size: 0x8, addend: 0x0, symName: __ZNSt3__19allocatorINS_11__hash_nodeINS_17__hash_value_typeIiNS_12basic_stringIcNS_11char_traitsIcEENS0_IcEEEEEEPvEEE9constructB8ue170006INS_4pairIKiS7_EEJRKSF_EEEvPT_DpOT0_, symObjAddr: 0x12180, symBinAddr: 0x1000127D4, symSize: 0x30 }
  - { offsetInCU: 0x27BA2, offset: 0x27BA2, size: 0x8, addend: 0x0, symName: __ZNSt3__14pairIKiNS_12basic_stringIcNS_11char_traitsIcEENS_9allocatorIcEEEEEC1B8ue170006ERKS8_, symObjAddr: 0x121B0, symBinAddr: 0x100012804, symSize: 0x34 }
  - { offsetInCU: 0x27BD6, offset: 0x27BD6, size: 0x8, addend: 0x0, symName: __ZNSt3__14pairIKiNS_12basic_stringIcNS_11char_traitsIcEENS_9allocatorIcEEEEEC2B8ue170006ERKS8_, symObjAddr: 0x121E4, symBinAddr: 0x100012838, symSize: 0x48 }
  - { offsetInCU: 0x27C0A, offset: 0x27C0A, size: 0x8, addend: 0x0, symName: __ZNSt3__117__compressed_pairIPNS_11__hash_nodeINS_17__hash_value_typeIiNS_12basic_stringIcNS_11char_traitsIcEENS_9allocatorIcEEEEEEPvEENS_22__hash_node_destructorINS6_ISB_EEEEE6secondB8ue170006Ev, symObjAddr: 0x1222C, symBinAddr: 0x100012880, symSize: 0x28 }
  - { offsetInCU: 0x27C30, offset: 0x27C30, size: 0x8, addend: 0x0, symName: __ZNSt3__122__compressed_pair_elemINS_22__hash_node_destructorINS_9allocatorINS_11__hash_nodeINS_17__hash_value_typeIiNS_12basic_stringIcNS_11char_traitsIcEENS2_IcEEEEEEPvEEEEEELi1ELb0EE5__getB8ue170006Ev, symObjAddr: 0x12254, symBinAddr: 0x1000128A8, symSize: 0x14 }
  - { offsetInCU: 0x27C56, offset: 0x27C56, size: 0x8, addend: 0x0, symName: __ZNKSt3__117__compressed_pairIPNS_11__hash_nodeINS_17__hash_value_typeIiNS_12basic_stringIcNS_11char_traitsIcEENS_9allocatorIcEEEEEEPvEENS_22__hash_node_destructorINS6_ISB_EEEEE5firstB8ue170006Ev, symObjAddr: 0x12268, symBinAddr: 0x1000128BC, symSize: 0x24 }
  - { offsetInCU: 0x27C7C, offset: 0x27C7C, size: 0x8, addend: 0x0, symName: __ZNSt3__117__compressed_pairIPNS_11__hash_nodeINS_17__hash_value_typeIiNS_12basic_stringIcNS_11char_traitsIcEENS_9allocatorIcEEEEEEPvEENS_22__hash_node_destructorINS6_ISB_EEEEE5firstB8ue170006Ev, symObjAddr: 0x1228C, symBinAddr: 0x1000128E0, symSize: 0x24 }
  - { offsetInCU: 0x27CA2, offset: 0x27CA2, size: 0x8, addend: 0x0, symName: __ZNSt3__110unique_ptrINS_11__hash_nodeINS_17__hash_value_typeIiNS_12basic_stringIcNS_11char_traitsIcEENS_9allocatorIcEEEEEEPvEENS_22__hash_node_destructorINS6_ISB_EEEEED2B8ue170006Ev, symObjAddr: 0x122B0, symBinAddr: 0x100012904, symSize: 0x30 }
  - { offsetInCU: 0x27CCC, offset: 0x27CCC, size: 0x8, addend: 0x0, symName: __ZNSt3__110unique_ptrINS_11__hash_nodeINS_17__hash_value_typeIiNS_12basic_stringIcNS_11char_traitsIcEENS_9allocatorIcEEEEEEPvEENS_22__hash_node_destructorINS6_ISB_EEEEE5resetB8ue170006EPSB_, symObjAddr: 0x122E0, symBinAddr: 0x100012934, symSize: 0x78 }
  - { offsetInCU: 0x27D10, offset: 0x27D10, size: 0x8, addend: 0x0, symName: __ZNSt3__122__hash_node_destructorINS_9allocatorINS_11__hash_nodeINS_17__hash_value_typeIiNS_12basic_stringIcNS_11char_traitsIcEENS1_IcEEEEEEPvEEEEEclB8ue170006EPSB_, symObjAddr: 0x12358, symBinAddr: 0x1000129AC, symSize: 0xAC }
  - { offsetInCU: 0x27D45, offset: 0x27D45, size: 0x8, addend: 0x0, symName: __ZNKSt3__121__hash_const_iteratorIPNS_11__hash_nodeINS_17__hash_value_typeIiNS_12basic_stringIcNS_11char_traitsIcEENS_9allocatorIcEEEEEEPvEEEptB8ue170006Ev, symObjAddr: 0x12404, symBinAddr: 0x100012A58, symSize: 0x30 }
  - { offsetInCU: 0x27D6B, offset: 0x27D6B, size: 0x8, addend: 0x0, symName: __ZNSt3__114pointer_traitsIPKNS_17__hash_value_typeIiNS_12basic_stringIcNS_11char_traitsIcEENS_9allocatorIcEEEEEEE10pointer_toB8ue170006ERS9_, symObjAddr: 0x12434, symBinAddr: 0x100012A88, symSize: 0x14 }
  - { offsetInCU: 0x27D8E, offset: 0x27D8E, size: 0x8, addend: 0x0, symName: __ZNSt3__121__hash_const_iteratorIPNS_11__hash_nodeINS_17__hash_value_typeIiNS_12basic_stringIcNS_11char_traitsIcEENS_9allocatorIcEEEEEEPvEEEppB8ue170006Ev, symObjAddr: 0x12448, symBinAddr: 0x100012A9C, symSize: 0x20 }
  - { offsetInCU: 0x27DB4, offset: 0x27DB4, size: 0x8, addend: 0x0, symName: __ZNKSt3__112__hash_tableINS_17__hash_value_typeIiNS_12basic_stringIcNS_11char_traitsIcEENS_9allocatorIcEEEEEENS_22__unordered_map_hasherIiS8_NS_4hashIiEENS_8equal_toIiEELb1EEENS_21__unordered_map_equalIiS8_SD_SB_Lb1EEENS5_IS8_EEE5beginEv, symObjAddr: 0x12468, symBinAddr: 0x100012ABC, symSize: 0x38 }
  - { offsetInCU: 0x27DDC, offset: 0x27DDC, size: 0x8, addend: 0x0, symName: __ZNSt3__125__hash_map_const_iteratorINS_21__hash_const_iteratorIPNS_11__hash_nodeINS_17__hash_value_typeIiNS_12basic_stringIcNS_11char_traitsIcEENS_9allocatorIcEEEEEEPvEEEEEC1B8ue170006ESE_, symObjAddr: 0x124A0, symBinAddr: 0x100012AF4, symSize: 0x34 }
  - { offsetInCU: 0x27E15, offset: 0x27E15, size: 0x8, addend: 0x0, symName: __ZNKSt3__117__compressed_pairINS_16__hash_node_baseIPNS_11__hash_nodeINS_17__hash_value_typeIiNS_12basic_stringIcNS_11char_traitsIcEENS_9allocatorIcEEEEEEPvEEEENS7_ISC_EEE5firstB8ue170006Ev, symObjAddr: 0x124D4, symBinAddr: 0x100012B28, symSize: 0x24 }
  - { offsetInCU: 0x27E3B, offset: 0x27E3B, size: 0x8, addend: 0x0, symName: __ZNSt3__121__hash_const_iteratorIPNS_11__hash_nodeINS_17__hash_value_typeIiNS_12basic_stringIcNS_11char_traitsIcEENS_9allocatorIcEEEEEEPvEEEC1B8ue170006EPNS_16__hash_node_baseISC_EE, symObjAddr: 0x124F8, symBinAddr: 0x100012B4C, symSize: 0x34 }
  - { offsetInCU: 0x27E74, offset: 0x27E74, size: 0x8, addend: 0x0, symName: __ZNKSt3__122__compressed_pair_elemINS_16__hash_node_baseIPNS_11__hash_nodeINS_17__hash_value_typeIiNS_12basic_stringIcNS_11char_traitsIcEENS_9allocatorIcEEEEEEPvEEEELi0ELb0EE5__getB8ue170006Ev, symObjAddr: 0x1252C, symBinAddr: 0x100012B80, symSize: 0x14 }
  - { offsetInCU: 0x27E9A, offset: 0x27E9A, size: 0x8, addend: 0x0, symName: __ZNSt3__121__hash_const_iteratorIPNS_11__hash_nodeINS_17__hash_value_typeIiNS_12basic_stringIcNS_11char_traitsIcEENS_9allocatorIcEEEEEEPvEEEC2B8ue170006EPNS_16__hash_node_baseISC_EE, symObjAddr: 0x12540, symBinAddr: 0x100012B94, symSize: 0x20 }
  - { offsetInCU: 0x27ED3, offset: 0x27ED3, size: 0x8, addend: 0x0, symName: __ZNSt3__125__hash_map_const_iteratorINS_21__hash_const_iteratorIPNS_11__hash_nodeINS_17__hash_value_typeIiNS_12basic_stringIcNS_11char_traitsIcEENS_9allocatorIcEEEEEEPvEEEEEC2B8ue170006ESE_, symObjAddr: 0x12560, symBinAddr: 0x100012BB4, symSize: 0x20 }
  - { offsetInCU: 0x27F0C, offset: 0x27F0C, size: 0x8, addend: 0x0, symName: __ZNKSt3__112__hash_tableINS_17__hash_value_typeIiNS_12basic_stringIcNS_11char_traitsIcEENS_9allocatorIcEEEEEENS_22__unordered_map_hasherIiS8_NS_4hashIiEENS_8equal_toIiEELb1EEENS_21__unordered_map_equalIiS8_SD_SB_Lb1EEENS5_IS8_EEE3endEv, symObjAddr: 0x12580, symBinAddr: 0x100012BD4, symSize: 0x2C }
  - { offsetInCU: 0x27F34, offset: 0x27F34, size: 0x8, addend: 0x0, symName: __ZNSt3__13mapINS_12basic_stringIcNS_11char_traitsIcEENS_9allocatorIcEEEE14LocationConfigNS_4lessIS6_EENS4_INS_4pairIKS6_S7_EEEEEC2B8ue170006ERKSE_, symObjAddr: 0x125AC, symBinAddr: 0x100012C00, symSize: 0x90 }
  - { offsetInCU: 0x27F6D, offset: 0x27F6D, size: 0x8, addend: 0x0, symName: __ZNSt3__16__treeINS_12__value_typeINS_12basic_stringIcNS_11char_traitsIcEENS_9allocatorIcEEEE14LocationConfigEENS_19__map_value_compareIS7_S9_NS_4lessIS7_EELb1EEENS5_IS9_EEEC1ERKSF_, symObjAddr: 0x1263C, symBinAddr: 0x100012C90, symSize: 0x34 }
  - { offsetInCU: 0x27FA8, offset: 0x27FA8, size: 0x8, addend: 0x0, symName: __ZNSt3__13mapINS_12basic_stringIcNS_11char_traitsIcEENS_9allocatorIcEEEE14LocationConfigNS_4lessIS6_EENS4_INS_4pairIKS6_S7_EEEEE6insertB8ue170006INS_20__map_const_iteratorINS_21__tree_const_iteratorINS_12__value_typeIS6_S7_EEPNS_11__tree_nodeISJ_PvEElEEEEEEvT_SQ_, symObjAddr: 0x12670, symBinAddr: 0x100012CC4, symSize: 0x8C }
  - { offsetInCU: 0x28012, offset: 0x28012, size: 0x8, addend: 0x0, symName: __ZNKSt3__13mapINS_12basic_stringIcNS_11char_traitsIcEENS_9allocatorIcEEEE14LocationConfigNS_4lessIS6_EENS4_INS_4pairIKS6_S7_EEEEE5beginB8ue170006Ev, symObjAddr: 0x126FC, symBinAddr: 0x100012D50, symSize: 0x38 }
  - { offsetInCU: 0x28038, offset: 0x28038, size: 0x8, addend: 0x0, symName: __ZNKSt3__13mapINS_12basic_stringIcNS_11char_traitsIcEENS_9allocatorIcEEEE14LocationConfigNS_4lessIS6_EENS4_INS_4pairIKS6_S7_EEEEE3endB8ue170006Ev, symObjAddr: 0x12734, symBinAddr: 0x100012D88, symSize: 0x38 }
  - { offsetInCU: 0x2805E, offset: 0x2805E, size: 0x8, addend: 0x0, symName: __ZNSt3__16__treeINS_12__value_typeINS_12basic_stringIcNS_11char_traitsIcEENS_9allocatorIcEEEE14LocationConfigEENS_19__map_value_compareIS7_S9_NS_4lessIS7_EELb1EEENS5_IS9_EEED1Ev, symObjAddr: 0x1276C, symBinAddr: 0x100012DC0, symSize: 0x2C }
  - { offsetInCU: 0x2808A, offset: 0x2808A, size: 0x8, addend: 0x0, symName: __ZNSt3__16__treeINS_12__value_typeINS_12basic_stringIcNS_11char_traitsIcEENS_9allocatorIcEEEE14LocationConfigEENS_19__map_value_compareIS7_S9_NS_4lessIS7_EELb1EEENS5_IS9_EEEC2ERKSF_, symObjAddr: 0x12798, symBinAddr: 0x100012DEC, symSize: 0x9C }
  - { offsetInCU: 0x280C5, offset: 0x280C5, size: 0x8, addend: 0x0, symName: __ZNSt3__116allocator_traitsINS_9allocatorINS_11__tree_nodeINS_12__value_typeINS_12basic_stringIcNS_11char_traitsIcEENS1_IcEEEE14LocationConfigEEPvEEEEE37select_on_container_copy_constructionB8ue170006ISD_vvEESD_RKSD_, symObjAddr: 0x12834, symBinAddr: 0x100012E88, symSize: 0x10 }
  - { offsetInCU: 0x280F4, offset: 0x280F4, size: 0x8, addend: 0x0, symName: __ZNKSt3__16__treeINS_12__value_typeINS_12basic_stringIcNS_11char_traitsIcEENS_9allocatorIcEEEE14LocationConfigEENS_19__map_value_compareIS7_S9_NS_4lessIS7_EELb1EEENS5_IS9_EEE12__node_allocB8ue170006Ev, symObjAddr: 0x12844, symBinAddr: 0x100012E98, symSize: 0x28 }
  - { offsetInCU: 0x28120, offset: 0x28120, size: 0x8, addend: 0x0, symName: __ZNSt3__117__compressed_pairINS_15__tree_end_nodeIPNS_16__tree_node_baseIPvEEEENS_9allocatorINS_11__tree_nodeINS_12__value_typeINS_12basic_stringIcNS_11char_traitsIcEENS7_IcEEEE14LocationConfigEES3_EEEEEC1B8ue170006INS_18__default_init_tagESI_EEOT_OT0_, symObjAddr: 0x1286C, symBinAddr: 0x100012EC0, symSize: 0x3C }
  - { offsetInCU: 0x28178, offset: 0x28178, size: 0x8, addend: 0x0, symName: __ZNKSt3__16__treeINS_12__value_typeINS_12basic_stringIcNS_11char_traitsIcEENS_9allocatorIcEEEE14LocationConfigEENS_19__map_value_compareIS7_S9_NS_4lessIS7_EELb1EEENS5_IS9_EEE10value_compB8ue170006Ev, symObjAddr: 0x128A8, symBinAddr: 0x100012EFC, symSize: 0x28 }
  - { offsetInCU: 0x2819E, offset: 0x2819E, size: 0x8, addend: 0x0, symName: __ZNKSt3__117__compressed_pairINS_15__tree_end_nodeIPNS_16__tree_node_baseIPvEEEENS_9allocatorINS_11__tree_nodeINS_12__value_typeINS_12basic_stringIcNS_11char_traitsIcEENS7_IcEEEE14LocationConfigEES3_EEEEE6secondB8ue170006Ev, symObjAddr: 0x128D0, symBinAddr: 0x100012F24, symSize: 0x24 }
  - { offsetInCU: 0x281C4, offset: 0x281C4, size: 0x8, addend: 0x0, symName: __ZNKSt3__122__compressed_pair_elemINS_9allocatorINS_11__tree_nodeINS_12__value_typeINS_12basic_stringIcNS_11char_traitsIcEENS1_IcEEEE14LocationConfigEEPvEEEELi1ELb1EE5__getB8ue170006Ev, symObjAddr: 0x128F4, symBinAddr: 0x100012F48, symSize: 0x14 }
  - { offsetInCU: 0x281EA, offset: 0x281EA, size: 0x8, addend: 0x0, symName: __ZNSt3__117__compressed_pairINS_15__tree_end_nodeIPNS_16__tree_node_baseIPvEEEENS_9allocatorINS_11__tree_nodeINS_12__value_typeINS_12basic_stringIcNS_11char_traitsIcEENS7_IcEEEE14LocationConfigEES3_EEEEEC2B8ue170006INS_18__default_init_tagESI_EEOT_OT0_, symObjAddr: 0x12908, symBinAddr: 0x100012F5C, symSize: 0x40 }
  - { offsetInCU: 0x28242, offset: 0x28242, size: 0x8, addend: 0x0, symName: __ZNSt3__122__compressed_pair_elemINS_15__tree_end_nodeIPNS_16__tree_node_baseIPvEEEELi0ELb0EEC2B8ue170006ENS_18__default_init_tagE, symObjAddr: 0x12948, symBinAddr: 0x100012F9C, symSize: 0x2C }
  - { offsetInCU: 0x28276, offset: 0x28276, size: 0x8, addend: 0x0, symName: __ZNSt3__122__compressed_pair_elemINS_9allocatorINS_11__tree_nodeINS_12__value_typeINS_12basic_stringIcNS_11char_traitsIcEENS1_IcEEEE14LocationConfigEEPvEEEELi1ELb1EEC2B8ue170006ISD_vEEOT_, symObjAddr: 0x12974, symBinAddr: 0x100012FC8, symSize: 0x18 }
  - { offsetInCU: 0x282B8, offset: 0x282B8, size: 0x8, addend: 0x0, symName: __ZNKSt3__117__compressed_pairImNS_19__map_value_compareINS_12basic_stringIcNS_11char_traitsIcEENS_9allocatorIcEEEENS_12__value_typeIS7_14LocationConfigEENS_4lessIS7_EELb1EEEE6secondB8ue170006Ev, symObjAddr: 0x1298C, symBinAddr: 0x100012FE0, symSize: 0x24 }
  - { offsetInCU: 0x282DE, offset: 0x282DE, size: 0x8, addend: 0x0, symName: __ZNKSt3__122__compressed_pair_elemINS_19__map_value_compareINS_12basic_stringIcNS_11char_traitsIcEENS_9allocatorIcEEEENS_12__value_typeIS7_14LocationConfigEENS_4lessIS7_EELb1EEELi1ELb1EE5__getB8ue170006Ev, symObjAddr: 0x129B0, symBinAddr: 0x100013004, symSize: 0x14 }
  - { offsetInCU: 0x28304, offset: 0x28304, size: 0x8, addend: 0x0, symName: __ZNKSt3__13mapINS_12basic_stringIcNS_11char_traitsIcEENS_9allocatorIcEEEE14LocationConfigNS_4lessIS6_EENS4_INS_4pairIKS6_S7_EEEEE4cendB8ue170006Ev, symObjAddr: 0x129C4, symBinAddr: 0x100013018, symSize: 0x2C }
  - { offsetInCU: 0x2832A, offset: 0x2832A, size: 0x8, addend: 0x0, symName: __ZNSt3__13mapINS_12basic_stringIcNS_11char_traitsIcEENS_9allocatorIcEEEE14LocationConfigNS_4lessIS6_EENS4_INS_4pairIKS6_S7_EEEEE6insertB8ue170006ENS_20__map_const_iteratorINS_21__tree_const_iteratorINS_12__value_typeIS6_S7_EEPNS_11__tree_nodeISI_PvEElEEEERKSC_, symObjAddr: 0x12A20, symBinAddr: 0x100013074, symSize: 0x50 }
  - { offsetInCU: 0x2836E, offset: 0x2836E, size: 0x8, addend: 0x0, symName: __ZNSt3__120__map_const_iteratorINS_21__tree_const_iteratorINS_12__value_typeINS_12basic_stringIcNS_11char_traitsIcEENS_9allocatorIcEEEE14LocationConfigEEPNS_11__tree_nodeISA_PvEElEEEC1B8ue170006ESF_, symObjAddr: 0x12A70, symBinAddr: 0x1000130C4, symSize: 0x34 }
  - { offsetInCU: 0x283A7, offset: 0x283A7, size: 0x8, addend: 0x0, symName: __ZNKSt3__120__map_const_iteratorINS_21__tree_const_iteratorINS_12__value_typeINS_12basic_stringIcNS_11char_traitsIcEENS_9allocatorIcEEEE14LocationConfigEEPNS_11__tree_nodeISA_PvEElEEEdeB8ue170006Ev, symObjAddr: 0x12AA4, symBinAddr: 0x1000130F8, symSize: 0x28 }
  - { offsetInCU: 0x283CD, offset: 0x283CD, size: 0x8, addend: 0x0, symName: __ZNSt3__120__map_const_iteratorINS_21__tree_const_iteratorINS_12__value_typeINS_12basic_stringIcNS_11char_traitsIcEENS_9allocatorIcEEEE14LocationConfigEEPNS_11__tree_nodeISA_PvEElEEEppB8ue170006Ev, symObjAddr: 0x12ACC, symBinAddr: 0x100013120, symSize: 0x2C }
  - { offsetInCU: 0x283F3, offset: 0x283F3, size: 0x8, addend: 0x0, symName: __ZNSt3__16__treeINS_12__value_typeINS_12basic_stringIcNS_11char_traitsIcEENS_9allocatorIcEEEE14LocationConfigEENS_19__map_value_compareIS7_S9_NS_4lessIS7_EELb1EEENS5_IS9_EEE15__insert_uniqueB8ue170006ENS_21__tree_const_iteratorIS9_PNS_11__tree_nodeIS9_PvEElEERKNS_4pairIKS7_S8_EE, symObjAddr: 0x12B5C, symBinAddr: 0x1000131B0, symSize: 0x64 }
  - { offsetInCU: 0x28437, offset: 0x28437, size: 0x8, addend: 0x0, symName: __ZNSt3__16__treeINS_12__value_typeINS_12basic_stringIcNS_11char_traitsIcEENS_9allocatorIcEEEE14LocationConfigEENS_19__map_value_compareIS7_S9_NS_4lessIS7_EELb1EEENS5_IS9_EEE30__emplace_hint_unique_key_argsIS7_JRKNS_4pairIKS7_S8_EEEEENSH_INS_15__tree_iteratorIS9_PNS_11__tree_nodeIS9_PvEElEEbEENS_21__tree_const_iteratorIS9_SQ_lEERKT_DpOT0_, symObjAddr: 0x12BC0, symBinAddr: 0x100013214, symSize: 0x104 }
  - { offsetInCU: 0x28503, offset: 0x28503, size: 0x8, addend: 0x0, symName: __ZNSt3__16__treeINS_12__value_typeINS_12basic_stringIcNS_11char_traitsIcEENS_9allocatorIcEEEE14LocationConfigEENS_19__map_value_compareIS7_S9_NS_4lessIS7_EELb1EEENS5_IS9_EEE12__find_equalIS7_EERPNS_16__tree_node_baseIPvEENS_21__tree_const_iteratorIS9_PNS_11__tree_nodeIS9_SI_EElEERPNS_15__tree_end_nodeISK_EESL_RKT_, symObjAddr: 0x12CC4, symBinAddr: 0x100013318, symSize: 0x304 }
  - { offsetInCU: 0x285AC, offset: 0x285AC, size: 0x8, addend: 0x0, symName: __ZNSt3__16__treeINS_12__value_typeINS_12basic_stringIcNS_11char_traitsIcEENS_9allocatorIcEEEE14LocationConfigEENS_19__map_value_compareIS7_S9_NS_4lessIS7_EELb1EEENS5_IS9_EEE3endB8ue170006Ev, symObjAddr: 0x12FC8, symBinAddr: 0x10001361C, symSize: 0x34 }
  - { offsetInCU: 0x285D2, offset: 0x285D2, size: 0x8, addend: 0x0, symName: __ZNSt3__121__tree_const_iteratorINS_12__value_typeINS_12basic_stringIcNS_11char_traitsIcEENS_9allocatorIcEEEE14LocationConfigEEPNS_11__tree_nodeIS9_PvEElEC1B8ue170006ENS_15__tree_iteratorIS9_SD_lEE, symObjAddr: 0x12FFC, symBinAddr: 0x100013650, symSize: 0x34 }
  - { offsetInCU: 0x2860B, offset: 0x2860B, size: 0x8, addend: 0x0, symName: __ZNKSt3__121__tree_const_iteratorINS_12__value_typeINS_12basic_stringIcNS_11char_traitsIcEENS_9allocatorIcEEEE14LocationConfigEEPNS_11__tree_nodeIS9_PvEElEdeB8ue170006Ev, symObjAddr: 0x13030, symBinAddr: 0x100013684, symSize: 0x28 }
  - { offsetInCU: 0x28631, offset: 0x28631, size: 0x8, addend: 0x0, symName: __ZNSt3__16__treeINS_12__value_typeINS_12basic_stringIcNS_11char_traitsIcEENS_9allocatorIcEEEE14LocationConfigEENS_19__map_value_compareIS7_S9_NS_4lessIS7_EELb1EEENS5_IS9_EEE5beginB8ue170006Ev, symObjAddr: 0x13058, symBinAddr: 0x1000136AC, symSize: 0x34 }
  - { offsetInCU: 0x28657, offset: 0x28657, size: 0x8, addend: 0x0, symName: __ZNSt3__121__tree_const_iteratorINS_12__value_typeINS_12basic_stringIcNS_11char_traitsIcEENS_9allocatorIcEEEE14LocationConfigEEPNS_11__tree_nodeIS9_PvEElEmmB8ue170006Ev, symObjAddr: 0x1308C, symBinAddr: 0x1000136E0, symSize: 0x38 }
  - { offsetInCU: 0x2867D, offset: 0x2867D, size: 0x8, addend: 0x0, symName: __ZNKSt3__121__tree_const_iteratorINS_12__value_typeINS_12basic_stringIcNS_11char_traitsIcEENS_9allocatorIcEEEE14LocationConfigEEPNS_11__tree_nodeIS9_PvEElE8__get_npB8ue170006Ev, symObjAddr: 0x13100, symBinAddr: 0x100013754, symSize: 0x18 }
  - { offsetInCU: 0x286A3, offset: 0x286A3, size: 0x8, addend: 0x0, symName: __ZNSt3__115__tree_iteratorINS_12__value_typeINS_12basic_stringIcNS_11char_traitsIcEENS_9allocatorIcEEEE14LocationConfigEEPNS_11__tree_nodeIS9_PvEElEC1B8ue170006EPNS_15__tree_end_nodeIPNS_16__tree_node_baseISB_EEEE, symObjAddr: 0x13118, symBinAddr: 0x10001376C, symSize: 0x34 }
  - { offsetInCU: 0x286DC, offset: 0x286DC, size: 0x8, addend: 0x0, symName: __ZNSt3__115__tree_iteratorINS_12__value_typeINS_12basic_stringIcNS_11char_traitsIcEENS_9allocatorIcEEEE14LocationConfigEEPNS_11__tree_nodeIS9_PvEElEC2B8ue170006EPNS_15__tree_end_nodeIPNS_16__tree_node_baseISB_EEEE, symObjAddr: 0x1314C, symBinAddr: 0x1000137A0, symSize: 0x20 }
  - { offsetInCU: 0x28715, offset: 0x28715, size: 0x8, addend: 0x0, symName: __ZNSt3__121__tree_const_iteratorINS_12__value_typeINS_12basic_stringIcNS_11char_traitsIcEENS_9allocatorIcEEEE14LocationConfigEEPNS_11__tree_nodeIS9_PvEElEC2B8ue170006ENS_15__tree_iteratorIS9_SD_lEE, symObjAddr: 0x1316C, symBinAddr: 0x1000137C0, symSize: 0x20 }
  - { offsetInCU: 0x2874E, offset: 0x2874E, size: 0x8, addend: 0x0, symName: __ZNSt3__121__tree_const_iteratorINS_12__value_typeINS_12basic_stringIcNS_11char_traitsIcEENS_9allocatorIcEEEE14LocationConfigEEPNS_11__tree_nodeIS9_PvEElEppB8ue170006Ev, symObjAddr: 0x13344, symBinAddr: 0x100013998, symSize: 0x38 }
  - { offsetInCU: 0x28774, offset: 0x28774, size: 0x8, addend: 0x0, symName: __ZNSt3__120__map_const_iteratorINS_21__tree_const_iteratorINS_12__value_typeINS_12basic_stringIcNS_11char_traitsIcEENS_9allocatorIcEEEE14LocationConfigEEPNS_11__tree_nodeISA_PvEElEEEC2B8ue170006ESF_, symObjAddr: 0x1343C, symBinAddr: 0x100013A90, symSize: 0x20 }
  - { offsetInCU: 0x287AD, offset: 0x287AD, size: 0x8, addend: 0x0, symName: __ZNKSt3__121__tree_const_iteratorINS_12__value_typeINS_12basic_stringIcNS_11char_traitsIcEENS_9allocatorIcEEEE14LocationConfigEEPNS_11__tree_nodeIS9_PvEElEptB8ue170006Ev, symObjAddr: 0x1345C, symBinAddr: 0x100013AB0, symSize: 0x2C }
  - { offsetInCU: 0x287D3, offset: 0x287D3, size: 0x8, addend: 0x0, symName: __ZNSt3__114pointer_traitsIPKNS_12__value_typeINS_12basic_stringIcNS_11char_traitsIcEENS_9allocatorIcEEEE14LocationConfigEEE10pointer_toB8ue170006ERSA_, symObjAddr: 0x13488, symBinAddr: 0x100013ADC, symSize: 0x14 }
  - { offsetInCU: 0x287F6, offset: 0x287F6, size: 0x8, addend: 0x0, symName: __ZNKSt3__16__treeINS_12__value_typeINS_12basic_stringIcNS_11char_traitsIcEENS_9allocatorIcEEEE14LocationConfigEENS_19__map_value_compareIS7_S9_NS_4lessIS7_EELb1EEENS5_IS9_EEE5beginB8ue170006Ev, symObjAddr: 0x1349C, symBinAddr: 0x100013AF0, symSize: 0x34 }
  - { offsetInCU: 0x2881C, offset: 0x2881C, size: 0x8, addend: 0x0, symName: __ZNKSt3__16__treeINS_12__value_typeINS_12basic_stringIcNS_11char_traitsIcEENS_9allocatorIcEEEE14LocationConfigEENS_19__map_value_compareIS7_S9_NS_4lessIS7_EELb1EEENS5_IS9_EEE12__begin_nodeB8ue170006Ev, symObjAddr: 0x134D0, symBinAddr: 0x100013B24, symSize: 0x14 }
  - { offsetInCU: 0x28842, offset: 0x28842, size: 0x8, addend: 0x0, symName: __ZNSt3__121__tree_const_iteratorINS_12__value_typeINS_12basic_stringIcNS_11char_traitsIcEENS_9allocatorIcEEEE14LocationConfigEEPNS_11__tree_nodeIS9_PvEElEC1B8ue170006EPNS_15__tree_end_nodeIPNS_16__tree_node_baseISB_EEEE, symObjAddr: 0x134E4, symBinAddr: 0x100013B38, symSize: 0x34 }
  - { offsetInCU: 0x2887B, offset: 0x2887B, size: 0x8, addend: 0x0, symName: __ZNSt3__121__tree_const_iteratorINS_12__value_typeINS_12basic_stringIcNS_11char_traitsIcEENS_9allocatorIcEEEE14LocationConfigEEPNS_11__tree_nodeIS9_PvEElEC2B8ue170006EPNS_15__tree_end_nodeIPNS_16__tree_node_baseISB_EEEE, symObjAddr: 0x13518, symBinAddr: 0x100013B6C, symSize: 0x20 }
  - { offsetInCU: 0x288B4, offset: 0x288B4, size: 0x8, addend: 0x0, symName: __ZNKSt3__16__treeINS_12__value_typeINS_12basic_stringIcNS_11char_traitsIcEENS_9allocatorIcEEEE14LocationConfigEENS_19__map_value_compareIS7_S9_NS_4lessIS7_EELb1EEENS5_IS9_EEE3endB8ue170006Ev, symObjAddr: 0x13538, symBinAddr: 0x100013B8C, symSize: 0x34 }
  - { offsetInCU: 0x288DA, offset: 0x288DA, size: 0x8, addend: 0x0, symName: __ZNSt3__16__treeINS_12__value_typeINS_12basic_stringIcNS_11char_traitsIcEENS_9allocatorIcEEEE14LocationConfigEENS_19__map_value_compareIS7_S9_NS_4lessIS7_EELb1EEENS5_IS9_EEED2Ev, symObjAddr: 0x1356C, symBinAddr: 0x100013BC0, symSize: 0x38 }
  - { offsetInCU: 0x28906, offset: 0x28906, size: 0x8, addend: 0x0, symName: __ZNSt3__16__treeINS_12__value_typeINS_12basic_stringIcNS_11char_traitsIcEENS_9allocatorIcEEEE14LocationConfigEENS_19__map_value_compareIS7_S9_NS_4lessIS7_EELb1EEENS5_IS9_EEE7destroyEPNS_11__tree_nodeIS9_PvEE, symObjAddr: 0x135A4, symBinAddr: 0x100013BF8, symSize: 0xC0 }
  - { offsetInCU: 0x2895A, offset: 0x2895A, size: 0x8, addend: 0x0, symName: __ZNSt3__117__compressed_pairIP12ServerConfigNS_9allocatorIS1_EEE6secondB8ue170006Ev, symObjAddr: 0x13664, symBinAddr: 0x100013CB8, symSize: 0x24 }
  - { offsetInCU: 0x28980, offset: 0x28980, size: 0x8, addend: 0x0, symName: __ZNSt3__122__compressed_pair_elemINS_9allocatorI12ServerConfigEELi1ELb1EE5__getB8ue170006Ev, symObjAddr: 0x13688, symBinAddr: 0x100013CDC, symSize: 0x14 }
  - { offsetInCU: 0x289A6, offset: 0x289A6, size: 0x8, addend: 0x0, symName: __ZNSt3__16vectorI12ServerConfigNS_9allocatorIS1_EEE21_ConstructTransactionD2B8ue170006Ev, symObjAddr: 0x1369C, symBinAddr: 0x100013CF0, symSize: 0x20 }
  - { offsetInCU: 0x289D0, offset: 0x289D0, size: 0x8, addend: 0x0, symName: __ZNKSt3__16vectorI12ServerConfigNS_9allocatorIS1_EEE11__recommendB8ue170006Em, symObjAddr: 0x136BC, symBinAddr: 0x100013D10, symSize: 0xB4 }
  - { offsetInCU: 0x28A25, offset: 0x28A25, size: 0x8, addend: 0x0, symName: __ZNKSt3__16vectorI12ServerConfigNS_9allocatorIS1_EEE4sizeB8ue170006Ev, symObjAddr: 0x13770, symBinAddr: 0x100013DC4, symSize: 0x28 }
  - { offsetInCU: 0x28A4B, offset: 0x28A4B, size: 0x8, addend: 0x0, symName: __ZNSt3__114__split_bufferI12ServerConfigRNS_9allocatorIS1_EEEC1EmmS4_, symObjAddr: 0x13798, symBinAddr: 0x100013DEC, symSize: 0x44 }
  - { offsetInCU: 0x28AA1, offset: 0x28AA1, size: 0x8, addend: 0x0, symName: __ZNSt3__114__split_bufferI12ServerConfigRNS_9allocatorIS1_EEED1Ev, symObjAddr: 0x138EC, symBinAddr: 0x100013F40, symSize: 0x2C }
  - { offsetInCU: 0x28ACD, offset: 0x28ACD, size: 0x8, addend: 0x0, symName: __ZNKSt3__16vectorI12ServerConfigNS_9allocatorIS1_EEE8max_sizeEv, symObjAddr: 0x13918, symBinAddr: 0x100013F6C, symSize: 0x74 }
  - { offsetInCU: 0x28AF5, offset: 0x28AF5, size: 0x8, addend: 0x0, symName: __ZNKSt3__16vectorI12ServerConfigNS_9allocatorIS1_EEE20__throw_length_errorB8ue170006Ev, symObjAddr: 0x1398C, symBinAddr: 0x100013FE0, symSize: 0x1C }
  - { offsetInCU: 0x28B1B, offset: 0x28B1B, size: 0x8, addend: 0x0, symName: __ZNKSt3__16vectorI12ServerConfigNS_9allocatorIS1_EEE8capacityB8ue170006Ev, symObjAddr: 0x139A8, symBinAddr: 0x100013FFC, symSize: 0x40 }
  - { offsetInCU: 0x28B4B, offset: 0x28B4B, size: 0x8, addend: 0x0, symName: __ZNSt3__116allocator_traitsINS_9allocatorI12ServerConfigEEE8max_sizeB8ue170006IS3_vEEmRKS3_, symObjAddr: 0x139E8, symBinAddr: 0x10001403C, symSize: 0x24 }
  - { offsetInCU: 0x28B79, offset: 0x28B79, size: 0x8, addend: 0x0, symName: __ZNKSt3__16vectorI12ServerConfigNS_9allocatorIS1_EEE7__allocB8ue170006Ev, symObjAddr: 0x13A0C, symBinAddr: 0x100014060, symSize: 0x28 }
  - { offsetInCU: 0x28B9F, offset: 0x28B9F, size: 0x8, addend: 0x0, symName: __ZNKSt3__19allocatorI12ServerConfigE8max_sizeB8ue170006Ev, symObjAddr: 0x13A34, symBinAddr: 0x100014088, symSize: 0x18 }
  - { offsetInCU: 0x28BC5, offset: 0x28BC5, size: 0x8, addend: 0x0, symName: __ZNKSt3__117__compressed_pairIP12ServerConfigNS_9allocatorIS1_EEE6secondB8ue170006Ev, symObjAddr: 0x13A4C, symBinAddr: 0x1000140A0, symSize: 0x24 }
  - { offsetInCU: 0x28BEB, offset: 0x28BEB, size: 0x8, addend: 0x0, symName: __ZNKSt3__122__compressed_pair_elemINS_9allocatorI12ServerConfigEELi1ELb1EE5__getB8ue170006Ev, symObjAddr: 0x13A70, symBinAddr: 0x1000140C4, symSize: 0x14 }
  - { offsetInCU: 0x28C11, offset: 0x28C11, size: 0x8, addend: 0x0, symName: __ZNKSt3__16vectorI12ServerConfigNS_9allocatorIS1_EEE9__end_capB8ue170006Ev, symObjAddr: 0x13A84, symBinAddr: 0x1000140D8, symSize: 0x28 }
  - { offsetInCU: 0x28C37, offset: 0x28C37, size: 0x8, addend: 0x0, symName: __ZNKSt3__117__compressed_pairIP12ServerConfigNS_9allocatorIS1_EEE5firstB8ue170006Ev, symObjAddr: 0x13AAC, symBinAddr: 0x100014100, symSize: 0x24 }
  - { offsetInCU: 0x28C5D, offset: 0x28C5D, size: 0x8, addend: 0x0, symName: __ZNKSt3__122__compressed_pair_elemIP12ServerConfigLi0ELb0EE5__getB8ue170006Ev, symObjAddr: 0x13AD0, symBinAddr: 0x100014124, symSize: 0x14 }
  - { offsetInCU: 0x28C83, offset: 0x28C83, size: 0x8, addend: 0x0, symName: __ZNSt3__114__split_bufferI12ServerConfigRNS_9allocatorIS1_EEEC2EmmS4_, symObjAddr: 0x13AE4, symBinAddr: 0x100014138, symSize: 0xE0 }
  - { offsetInCU: 0x28CF6, offset: 0x28CF6, size: 0x8, addend: 0x0, symName: __ZNSt3__117__compressed_pairIP12ServerConfigRNS_9allocatorIS1_EEEC1B8ue170006IDnS5_EEOT_OT0_, symObjAddr: 0x13BC4, symBinAddr: 0x100014218, symSize: 0x3C }
  - { offsetInCU: 0x28D4E, offset: 0x28D4E, size: 0x8, addend: 0x0, symName: __ZNSt3__114__split_bufferI12ServerConfigRNS_9allocatorIS1_EEE7__allocB8ue170006Ev, symObjAddr: 0x13C40, symBinAddr: 0x100014294, symSize: 0x28 }
  - { offsetInCU: 0x28D74, offset: 0x28D74, size: 0x8, addend: 0x0, symName: __ZNSt3__114__split_bufferI12ServerConfigRNS_9allocatorIS1_EEE9__end_capB8ue170006Ev, symObjAddr: 0x13C68, symBinAddr: 0x1000142BC, symSize: 0x28 }
  - { offsetInCU: 0x28D9A, offset: 0x28D9A, size: 0x8, addend: 0x0, symName: __ZNSt3__117__compressed_pairIP12ServerConfigRNS_9allocatorIS1_EEEC2B8ue170006IDnS5_EEOT_OT0_, symObjAddr: 0x13C90, symBinAddr: 0x1000142E4, symSize: 0x48 }
  - { offsetInCU: 0x28DF2, offset: 0x28DF2, size: 0x8, addend: 0x0, symName: __ZNSt3__122__compressed_pair_elemIRNS_9allocatorI12ServerConfigEELi1ELb0EEC2B8ue170006IS4_vEEOT_, symObjAddr: 0x13CD8, symBinAddr: 0x10001432C, symSize: 0x20 }
  - { offsetInCU: 0x28E34, offset: 0x28E34, size: 0x8, addend: 0x0, symName: __ZNSt3__19allocatorI12ServerConfigE8allocateB8ue170006Em, symObjAddr: 0x13CF8, symBinAddr: 0x10001434C, symSize: 0x8C }
  - { offsetInCU: 0x28E68, offset: 0x28E68, size: 0x8, addend: 0x0, symName: __ZNSt3__117__compressed_pairIP12ServerConfigRNS_9allocatorIS1_EEE6secondB8ue170006Ev, symObjAddr: 0x13D84, symBinAddr: 0x1000143D8, symSize: 0x28 }
  - { offsetInCU: 0x28E8E, offset: 0x28E8E, size: 0x8, addend: 0x0, symName: __ZNSt3__122__compressed_pair_elemIRNS_9allocatorI12ServerConfigEELi1ELb0EE5__getB8ue170006Ev, symObjAddr: 0x13DAC, symBinAddr: 0x100014400, symSize: 0x18 }
  - { offsetInCU: 0x28EB4, offset: 0x28EB4, size: 0x8, addend: 0x0, symName: __ZNSt3__117__compressed_pairIP12ServerConfigRNS_9allocatorIS1_EEE5firstB8ue170006Ev, symObjAddr: 0x13DC4, symBinAddr: 0x100014418, symSize: 0x24 }
  - { offsetInCU: 0x28EDA, offset: 0x28EDA, size: 0x8, addend: 0x0, symName: __ZNKSt3__16vectorI12ServerConfigNS_9allocatorIS1_EEE17__annotate_deleteB8ue170006Ev, symObjAddr: 0x13DE8, symBinAddr: 0x10001443C, symSize: 0xD4 }
  - { offsetInCU: 0x28F00, offset: 0x28F00, size: 0x8, addend: 0x0, symName: __ZNSt3__116reverse_iteratorIP12ServerConfigEC1B8ue170006ES2_, symObjAddr: 0x13FF0, symBinAddr: 0x100014644, symSize: 0x34 }
  - { offsetInCU: 0x28F38, offset: 0x28F38, size: 0x8, addend: 0x0, symName: __ZNKSt3__116reverse_iteratorIP12ServerConfigE4baseB8ue170006Ev, symObjAddr: 0x14024, symBinAddr: 0x100014678, symSize: 0x18 }
  - { offsetInCU: 0x28F5E, offset: 0x28F5E, size: 0x8, addend: 0x0, symName: __ZNKSt3__16vectorI12ServerConfigNS_9allocatorIS1_EEE14__annotate_newB8ue170006Em, symObjAddr: 0x14078, symBinAddr: 0x1000146CC, symSize: 0xC8 }
  - { offsetInCU: 0x28F93, offset: 0x28F93, size: 0x8, addend: 0x0, symName: __ZNKSt3__16vectorI12ServerConfigNS_9allocatorIS1_EEE31__annotate_contiguous_containerB8ue170006EPKvS6_S6_S6_, symObjAddr: 0x14140, symBinAddr: 0x100014794, symSize: 0x20 }
  - { offsetInCU: 0x28FE9, offset: 0x28FE9, size: 0x8, addend: 0x0, symName: __ZNKSt3__16vectorI12ServerConfigNS_9allocatorIS1_EEE4dataB8ue170006Ev, symObjAddr: 0x14160, symBinAddr: 0x1000147B4, symSize: 0x28 }
  - { offsetInCU: 0x2900F, offset: 0x2900F, size: 0x8, addend: 0x0, symName: __ZNSt3__129_AllocatorDestroyRangeReverseINS_9allocatorI12ServerConfigEENS_16reverse_iteratorIPS2_EEEC1B8ue170006ERS3_RS6_S9_, symObjAddr: 0x141D4, symBinAddr: 0x100014828, symSize: 0x44 }
  - { offsetInCU: 0x29066, offset: 0x29066, size: 0x8, addend: 0x0, symName: __ZNKSt3__116reverse_iteratorIP12ServerConfigEdeB8ue170006Ev, symObjAddr: 0x14284, symBinAddr: 0x1000148D8, symSize: 0x28 }
  - { offsetInCU: 0x2909A, offset: 0x2909A, size: 0x8, addend: 0x0, symName: __ZNSt3__116reverse_iteratorIP12ServerConfigEppB8ue170006Ev, symObjAddr: 0x142AC, symBinAddr: 0x100014900, symSize: 0x20 }
  - { offsetInCU: 0x290C0, offset: 0x290C0, size: 0x8, addend: 0x0, symName: __ZNSt3__128__exception_guard_exceptionsINS_29_AllocatorDestroyRangeReverseINS_9allocatorI12ServerConfigEENS_16reverse_iteratorIPS3_EEEEE10__completeB8ue170006Ev, symObjAddr: 0x142CC, symBinAddr: 0x100014920, symSize: 0x1C }
  - { offsetInCU: 0x290E6, offset: 0x290E6, size: 0x8, addend: 0x0, symName: __ZNSt3__128__exception_guard_exceptionsINS_29_AllocatorDestroyRangeReverseINS_9allocatorI12ServerConfigEENS_16reverse_iteratorIPS3_EEEEED1B8ue170006Ev, symObjAddr: 0x142E8, symBinAddr: 0x10001493C, symSize: 0x2C }
  - { offsetInCU: 0x29110, offset: 0x29110, size: 0x8, addend: 0x0, symName: __ZNSt3__128__exception_guard_exceptionsINS_29_AllocatorDestroyRangeReverseINS_9allocatorI12ServerConfigEENS_16reverse_iteratorIPS3_EEEEEC1B8ue170006ES8_, symObjAddr: 0x14314, symBinAddr: 0x100014968, symSize: 0x34 }
  - { offsetInCU: 0x29149, offset: 0x29149, size: 0x8, addend: 0x0, symName: __ZNSt3__128__exception_guard_exceptionsINS_29_AllocatorDestroyRangeReverseINS_9allocatorI12ServerConfigEENS_16reverse_iteratorIPS3_EEEEEC2B8ue170006ES8_, symObjAddr: 0x14348, symBinAddr: 0x10001499C, symSize: 0x30 }
  - { offsetInCU: 0x29182, offset: 0x29182, size: 0x8, addend: 0x0, symName: __ZNSt3__129_AllocatorDestroyRangeReverseINS_9allocatorI12ServerConfigEENS_16reverse_iteratorIPS2_EEEC2B8ue170006ERS3_RS6_S9_, symObjAddr: 0x14378, symBinAddr: 0x1000149CC, symSize: 0x38 }
  - { offsetInCU: 0x291DE, offset: 0x291DE, size: 0x8, addend: 0x0, symName: __ZNSt3__119__to_address_helperINS_16reverse_iteratorIP12ServerConfigEEvE6__callB8ue170006ERKS4_, symObjAddr: 0x143B0, symBinAddr: 0x100014A04, symSize: 0x4C }
  - { offsetInCU: 0x29201, offset: 0x29201, size: 0x8, addend: 0x0, symName: __ZNKSt3__116reverse_iteratorIP12ServerConfigEptB8ue170006Ev, symObjAddr: 0x143FC, symBinAddr: 0x100014A50, symSize: 0x24 }
  - { offsetInCU: 0x29227, offset: 0x29227, size: 0x8, addend: 0x0, symName: __ZNSt3__128__exception_guard_exceptionsINS_29_AllocatorDestroyRangeReverseINS_9allocatorI12ServerConfigEENS_16reverse_iteratorIPS3_EEEEED2B8ue170006Ev, symObjAddr: 0x14420, symBinAddr: 0x100014A74, symSize: 0x48 }
  - { offsetInCU: 0x29251, offset: 0x29251, size: 0x8, addend: 0x0, symName: __ZNKSt3__129_AllocatorDestroyRangeReverseINS_9allocatorI12ServerConfigEENS_16reverse_iteratorIPS2_EEEclB8ue170006Ev, symObjAddr: 0x14468, symBinAddr: 0x100014ABC, symSize: 0xB4 }
  - { offsetInCU: 0x29278, offset: 0x29278, size: 0x8, addend: 0x0, symName: __ZNSt3__116reverse_iteratorINS0_IP12ServerConfigEEEC1B8ue170006ES3_, symObjAddr: 0x1458C, symBinAddr: 0x100014BE0, symSize: 0x3C }
  - { offsetInCU: 0x292B0, offset: 0x292B0, size: 0x8, addend: 0x0, symName: __ZNSt3__116allocator_traitsINS_9allocatorI12ServerConfigEEE7destroyB8ue170006IS2_vEEvRS3_PT_, symObjAddr: 0x14628, symBinAddr: 0x100014C7C, symSize: 0x2C }
  - { offsetInCU: 0x292ED, offset: 0x292ED, size: 0x8, addend: 0x0, symName: __ZNSt3__116reverse_iteratorINS0_IP12ServerConfigEEEppB8ue170006Ev, symObjAddr: 0x14678, symBinAddr: 0x100014CCC, symSize: 0x30 }
  - { offsetInCU: 0x29313, offset: 0x29313, size: 0x8, addend: 0x0, symName: __ZNKSt3__116reverse_iteratorINS0_IP12ServerConfigEEE4baseB8ue170006Ev, symObjAddr: 0x146A8, symBinAddr: 0x100014CFC, symSize: 0x24 }
  - { offsetInCU: 0x29339, offset: 0x29339, size: 0x8, addend: 0x0, symName: __ZNSt3__19allocatorI12ServerConfigE7destroyB8ue170006EPS1_, symObjAddr: 0x146CC, symBinAddr: 0x100014D20, symSize: 0x28 }
  - { offsetInCU: 0x29372, offset: 0x29372, size: 0x8, addend: 0x0, symName: __ZNSt3__119__to_address_helperINS_16reverse_iteratorINS1_IP12ServerConfigEEEEvE6__callB8ue170006ERKS5_, symObjAddr: 0x146F4, symBinAddr: 0x100014D48, symSize: 0x4C }
  - { offsetInCU: 0x29395, offset: 0x29395, size: 0x8, addend: 0x0, symName: __ZNKSt3__116reverse_iteratorINS0_IP12ServerConfigEEEptB8ue170006Ev, symObjAddr: 0x14740, symBinAddr: 0x100014D94, symSize: 0x24 }
  - { offsetInCU: 0x293BB, offset: 0x293BB, size: 0x8, addend: 0x0, symName: __ZNKSt3__116reverse_iteratorINS0_IP12ServerConfigEEEdeB8ue170006Ev, symObjAddr: 0x14764, symBinAddr: 0x100014DB8, symSize: 0x34 }
  - { offsetInCU: 0x293EF, offset: 0x293EF, size: 0x8, addend: 0x0, symName: __ZNSt3__116reverse_iteratorIP12ServerConfigEmmB8ue170006Ev, symObjAddr: 0x14798, symBinAddr: 0x100014DEC, symSize: 0x20 }
  - { offsetInCU: 0x29415, offset: 0x29415, size: 0x8, addend: 0x0, symName: __ZNSt3__116reverse_iteratorINS0_IP12ServerConfigEEEC2B8ue170006ES3_, symObjAddr: 0x147B8, symBinAddr: 0x100014E0C, symSize: 0x2C }
  - { offsetInCU: 0x2944D, offset: 0x2944D, size: 0x8, addend: 0x0, symName: __ZNSt3__116reverse_iteratorIP12ServerConfigEC2B8ue170006ES2_, symObjAddr: 0x147E4, symBinAddr: 0x100014E38, symSize: 0x28 }
  - { offsetInCU: 0x29485, offset: 0x29485, size: 0x8, addend: 0x0, symName: __ZNSt3__114__split_bufferI12ServerConfigRNS_9allocatorIS1_EEED2Ev, symObjAddr: 0x1480C, symBinAddr: 0x100014E60, symSize: 0x80 }
  - { offsetInCU: 0x294B1, offset: 0x294B1, size: 0x8, addend: 0x0, symName: __ZNSt3__114__split_bufferI12ServerConfigRNS_9allocatorIS1_EEE5clearB8ue170006Ev, symObjAddr: 0x1488C, symBinAddr: 0x100014EE0, symSize: 0x28 }
  - { offsetInCU: 0x294D7, offset: 0x294D7, size: 0x8, addend: 0x0, symName: __ZNSt3__116allocator_traitsINS_9allocatorI12ServerConfigEEE10deallocateB8ue170006ERS3_PS2_m, symObjAddr: 0x148B4, symBinAddr: 0x100014F08, symSize: 0x34 }
  - { offsetInCU: 0x29519, offset: 0x29519, size: 0x8, addend: 0x0, symName: __ZNKSt3__114__split_bufferI12ServerConfigRNS_9allocatorIS1_EEE8capacityB8ue170006Ev, symObjAddr: 0x148E8, symBinAddr: 0x100014F3C, symSize: 0x40 }
  - { offsetInCU: 0x2953F, offset: 0x2953F, size: 0x8, addend: 0x0, symName: __ZNSt3__114__split_bufferI12ServerConfigRNS_9allocatorIS1_EEE17__destruct_at_endB8ue170006EPS1_, symObjAddr: 0x14928, symBinAddr: 0x100014F7C, symSize: 0x2C }
  - { offsetInCU: 0x29573, offset: 0x29573, size: 0x8, addend: 0x0, symName: __ZNSt3__114__split_bufferI12ServerConfigRNS_9allocatorIS1_EEE17__destruct_at_endB8ue170006EPS1_NS_17integral_constantIbLb0EEE, symObjAddr: 0x14954, symBinAddr: 0x100014FA8, symSize: 0x94 }
  - { offsetInCU: 0x295B3, offset: 0x295B3, size: 0x8, addend: 0x0, symName: __ZNSt3__19allocatorI12ServerConfigE10deallocateB8ue170006EPS1_m, symObjAddr: 0x149E8, symBinAddr: 0x10001503C, symSize: 0x74 }
  - { offsetInCU: 0x295F5, offset: 0x295F5, size: 0x8, addend: 0x0, symName: __ZNKSt3__114__split_bufferI12ServerConfigRNS_9allocatorIS1_EEE9__end_capB8ue170006Ev, symObjAddr: 0x14A5C, symBinAddr: 0x1000150B0, symSize: 0x28 }
  - { offsetInCU: 0x2961B, offset: 0x2961B, size: 0x8, addend: 0x0, symName: __ZNKSt3__117__compressed_pairIP12ServerConfigRNS_9allocatorIS1_EEE5firstB8ue170006Ev, symObjAddr: 0x14A84, symBinAddr: 0x1000150D8, symSize: 0x24 }
  - { offsetInCU: 0x29641, offset: 0x29641, size: 0x8, addend: 0x0, symName: __ZN12ServerConfigD2Ev, symObjAddr: 0x14AA8, symBinAddr: 0x1000150FC, symSize: 0xD4 }
  - { offsetInCU: 0x2966B, offset: 0x2966B, size: 0x8, addend: 0x0, symName: __ZNSt3__13mapINS_12basic_stringIcNS_11char_traitsIcEENS_9allocatorIcEEEE14LocationConfigNS_4lessIS6_EENS4_INS_4pairIKS6_S7_EEEEED1B8ue170006Ev, symObjAddr: 0x14B7C, symBinAddr: 0x1000151D0, symSize: 0x2C }
  - { offsetInCU: 0x29695, offset: 0x29695, size: 0x8, addend: 0x0, symName: __ZNSt3__13mapINS_12basic_stringIcNS_11char_traitsIcEENS_9allocatorIcEEEE14LocationConfigNS_4lessIS6_EENS4_INS_4pairIKS6_S7_EEEEED2B8ue170006Ev, symObjAddr: 0x14BA8, symBinAddr: 0x1000151FC, symSize: 0x2C }
  - { offsetInCU: 0x296BF, offset: 0x296BF, size: 0x8, addend: 0x0, symName: __ZNSt3__118basic_stringstreamIcNS_11char_traitsIcEENS_9allocatorIcEEED2Ev, symObjAddr: 0x14BD4, symBinAddr: 0x100015228, symSize: 0xA4 }
  - { offsetInCU: 0x296F9, offset: 0x296F9, size: 0x8, addend: 0x0, symName: __ZThn16_NSt3__118basic_stringstreamIcNS_11char_traitsIcEENS_9allocatorIcEEED1Ev, symObjAddr: 0x14C78, symBinAddr: 0x1000152CC, symSize: 0x1C }
  - { offsetInCU: 0x29710, offset: 0x29710, size: 0x8, addend: 0x0, symName: __ZTv0_n24_NSt3__118basic_stringstreamIcNS_11char_traitsIcEENS_9allocatorIcEEED1Ev, symObjAddr: 0x14C94, symBinAddr: 0x1000152E8, symSize: 0x28 }
  - { offsetInCU: 0x2972C, offset: 0x2972C, size: 0x8, addend: 0x0, symName: __ZNSt3__115basic_stringbufIcNS_11char_traitsIcEENS_9allocatorIcEEED1Ev, symObjAddr: 0x14CBC, symBinAddr: 0x100015310, symSize: 0x2C }
  - { offsetInCU: 0x29759, offset: 0x29759, size: 0x8, addend: 0x0, symName: __ZNSt3__115basic_stringbufIcNS_11char_traitsIcEENS_9allocatorIcEEED2Ev, symObjAddr: 0x14CE8, symBinAddr: 0x10001533C, symSize: 0x78 }
  - { offsetInCU: 0x29786, offset: 0x29786, size: 0x8, addend: 0x0, symName: __ZNSt3__114basic_ifstreamIcNS_11char_traitsIcEEED2Ev, symObjAddr: 0x14D60, symBinAddr: 0x1000153B4, symSize: 0x9C }
  - { offsetInCU: 0x297C0, offset: 0x297C0, size: 0x8, addend: 0x0, symName: __ZTv0_n24_NSt3__114basic_ifstreamIcNS_11char_traitsIcEEED1Ev, symObjAddr: 0x14DFC, symBinAddr: 0x100015450, symSize: 0x28 }
  - { offsetInCU: 0x297D7, offset: 0x297D7, size: 0x8, addend: 0x0, symName: __ZNSt3__16vectorI12ServerConfigNS_9allocatorIS1_EEED2B8ue170006Ev, symObjAddr: 0x14E24, symBinAddr: 0x100015478, symSize: 0x3C }
  - { offsetInCU: 0x29801, offset: 0x29801, size: 0x8, addend: 0x0, symName: __ZNSt3__16vectorI12ServerConfigNS_9allocatorIS1_EEE16__destroy_vectorC1B8ue170006ERS4_, symObjAddr: 0x14E60, symBinAddr: 0x1000154B4, symSize: 0x34 }
  - { offsetInCU: 0x2983A, offset: 0x2983A, size: 0x8, addend: 0x0, symName: __ZNSt3__16vectorI12ServerConfigNS_9allocatorIS1_EEE16__destroy_vectorclB8ue170006Ev, symObjAddr: 0x14E94, symBinAddr: 0x1000154E8, symSize: 0x90 }
  - { offsetInCU: 0x29860, offset: 0x29860, size: 0x8, addend: 0x0, symName: __ZNSt3__16vectorI12ServerConfigNS_9allocatorIS1_EEE16__destroy_vectorC2B8ue170006ERS4_, symObjAddr: 0x14F24, symBinAddr: 0x100015578, symSize: 0x20 }
  - { offsetInCU: 0x29899, offset: 0x29899, size: 0x8, addend: 0x0, symName: __ZNSt3__16vectorI12ServerConfigNS_9allocatorIS1_EEE7__clearB8ue170006Ev, symObjAddr: 0x14F44, symBinAddr: 0x100015598, symSize: 0x28 }
  - { offsetInCU: 0x298BF, offset: 0x298BF, size: 0x8, addend: 0x0, symName: __ZNSt3__16vectorI12ServerConfigNS_9allocatorIS1_EEE22__base_destruct_at_endB8ue170006EPS1_, symObjAddr: 0x14F6C, symBinAddr: 0x1000155C0, symSize: 0xA0 }
  - { offsetInCU: 0x29903, offset: 0x29903, size: 0x8, addend: 0x0, symName: __ZNKSt3__16vectorI12ServerConfigNS_9allocatorIS1_EEEixB8ue170006Em, symObjAddr: 0x15054, symBinAddr: 0x1000156A8, symSize: 0x2C }
  - { offsetInCU: 0x29958, offset: 0x29958, size: 0x8, addend: 0x0, symName: __ZNKSt3__113basic_ostreamIcNS_11char_traitsIcEEE6sentrycvbB8ue170006Ev, symObjAddr: 0x15274, symBinAddr: 0x1000158C8, symSize: 0x1C }
  - { offsetInCU: 0x2997E, offset: 0x2997E, size: 0x8, addend: 0x0, symName: __ZNSt3__119ostreambuf_iteratorIcNS_11char_traitsIcEEEC1B8ue170006ERNS_13basic_ostreamIcS2_EE, symObjAddr: 0x154D8, symBinAddr: 0x100015B2C, symSize: 0x34 }
  - { offsetInCU: 0x299B6, offset: 0x299B6, size: 0x8, addend: 0x0, symName: __ZNKSt3__18ios_base5flagsB8ue170006Ev, symObjAddr: 0x1550C, symBinAddr: 0x100015B60, symSize: 0x18 }
  - { offsetInCU: 0x299DE, offset: 0x299DE, size: 0x8, addend: 0x0, symName: __ZNKSt3__19basic_iosIcNS_11char_traitsIcEEE4fillB8ue170006Ev, symObjAddr: 0x15524, symBinAddr: 0x100015B78, symSize: 0x64 }
  - { offsetInCU: 0x29A06, offset: 0x29A06, size: 0x8, addend: 0x0, symName: __ZNKSt3__119ostreambuf_iteratorIcNS_11char_traitsIcEEE6failedB8ue170006Ev, symObjAddr: 0x15588, symBinAddr: 0x100015BDC, symSize: 0x24 }
  - { offsetInCU: 0x29A2C, offset: 0x29A2C, size: 0x8, addend: 0x0, symName: __ZNKSt3__18ios_base5widthB8ue170006Ev, symObjAddr: 0x155AC, symBinAddr: 0x100015C00, symSize: 0x18 }
  - { offsetInCU: 0x29A54, offset: 0x29A54, size: 0x8, addend: 0x0, symName: __ZNSt3__115basic_streambufIcNS_11char_traitsIcEEE5sputnB8ue170006EPKcl, symObjAddr: 0x155C4, symBinAddr: 0x100015C18, symSize: 0x3C }
  - { offsetInCU: 0x29A96, offset: 0x29A96, size: 0x8, addend: 0x0, symName: __ZNSt3__112basic_stringIcNS_11char_traitsIcEENS_9allocatorIcEEEC1B8ue170006Emc, symObjAddr: 0x15600, symBinAddr: 0x100015C54, symSize: 0x3C }
  - { offsetInCU: 0x29ADE, offset: 0x29ADE, size: 0x8, addend: 0x0, symName: __ZNSt3__18ios_base5widthB8ue170006El, symObjAddr: 0x1563C, symBinAddr: 0x100015C90, symSize: 0x2C }
  - { offsetInCU: 0x29B24, offset: 0x29B24, size: 0x8, addend: 0x0, symName: __ZNSt3__112basic_stringIcNS_11char_traitsIcEENS_9allocatorIcEEEC2B8ue170006Emc, symObjAddr: 0x15668, symBinAddr: 0x100015CBC, symSize: 0x4C }
  - { offsetInCU: 0x29B6C, offset: 0x29B6C, size: 0x8, addend: 0x0, symName: __ZNSt3__119ostreambuf_iteratorIcNS_11char_traitsIcEEEC2B8ue170006ERNS_13basic_ostreamIcS2_EE, symObjAddr: 0x156B4, symBinAddr: 0x100015D08, symSize: 0x68 }
  - { offsetInCU: 0x29BA4, offset: 0x29BA4, size: 0x8, addend: 0x0, symName: __ZN6ConfigD2Ev, symObjAddr: 0x1571C, symBinAddr: 0x100015D70, symSize: 0x2C }
...
